;
; File generated by cc65 v 2.16 - Git N/A
;
	.fopt		compiler,"cc65 v 2.16 - Git N/A"
	.setcpu		"6502"
	.smart		on
	.autoimport	on
	.case		on
	.debuginfo	off
	.importzp	sp, sreg, regsave, regbank
	.importzp	tmp1, tmp2, tmp3, tmp4, ptr1, ptr2, ptr3, ptr4
	.macpack	longbranch
	.forceimport	__STARTUP__
	.importzp	_Frame_Number
	.importzp	_InputPort1
	.import		_WaitFrame
	.export		_i
	.export		_player_tl
	.export		_player_tr
	.export		_player_bl
	.export		_player_br
	.export		_PALETTE
	.export		_time_min
	.export		_time_sec_low
	.export		_time_sec_high
	.export		_state
	.export		_reset_scroll
	.export		_screen_on
	.export		_update_time
	.export		_input_handler
	.export		_update_sprite
	.export		_add_second
	.export		_draw_background
	.export		_main

.segment	"DATA"

_time_min:
	.byte	$00
_time_sec_low:
	.byte	$00
_time_sec_high:
	.byte	$00

.segment	"RODATA"

_PALETTE:
	.byte	$20
	.byte	$0F
	.byte	$0F
	.byte	$0F
	.byte	$00
	.byte	$00
	.byte	$00
	.byte	$00
	.byte	$00
	.byte	$00
	.byte	$00
	.byte	$00
	.byte	$00
	.byte	$00
	.byte	$00
	.byte	$00
	.byte	$21
	.byte	$0C
	.byte	$27
	.byte	$37
	.byte	$00
	.byte	$00
	.byte	$00
	.byte	$00
	.byte	$00
	.byte	$00
	.byte	$00
	.byte	$00
	.byte	$00
	.byte	$00
	.byte	$00
	.byte	$00

.segment	"BSS"

.segment	"ZEROPAGE"
.segment	"BSS"
.segment	"OAM"
.segment	"BSS"
.segment	"ZEROPAGE"
_i:
	.res	2,$00
.segment	"OAM"
_player_tl:
	.res	4,$00
.segment	"OAM"
_player_tr:
	.res	4,$00
.segment	"OAM"
_player_bl:
	.res	4,$00
.segment	"OAM"
_player_br:
	.res	4,$00
.segment	"BSS"
_state:
	.res	1,$00

; ---------------------------------------------------------------
; void __near__ reset_scroll (void)
; ---------------------------------------------------------------

.segment	"CODE"

.proc	_reset_scroll: near

.segment	"CODE"

;
; PPU_SCROLL = 0x00;
;
	lda     #$00
	sta     $2005
;
; PPU_SCROLL = 0x00;
;
	sta     $2005
;
; }
;
	rts

.endproc

; ---------------------------------------------------------------
; void __near__ screen_on (void)
; ---------------------------------------------------------------

.segment	"CODE"

.proc	_screen_on: near

.segment	"CODE"

;
; PPU_CTRL = 0x80; // 1000 0000, turns NMI on
;
	lda     #$80
	sta     $2000
;
; PPU_MASK = 0x1e; // 0001 1110, show sprites and background
;
	lda     #$1E
	sta     $2001
;
; }
;
	rts

.endproc

; ---------------------------------------------------------------
; void __near__ update_time (void)
; ---------------------------------------------------------------

.segment	"CODE"

.proc	_update_time: near

.segment	"CODE"

;
; PPU_ADDRESS = NAMETABLE0_HIGH + 0x00; // top-right of screen
;
	lda     #$20
	sta     $2006
;
; PPU_ADDRESS = NAMETABLE0_LOW  + 0x59;
;
	lda     #$59
	sta     $2006
;
; PPU_DATA = NUMBER_0 + time_min;
;
	lda     _time_min
	clc
	adc     #$30
	sta     $2007
;
; PPU_DATA = 0x3a; // ':'
;
	lda     #$3A
	sta     $2007
;
; PPU_DATA = NUMBER_0 + time_sec_high;
;
	lda     _time_sec_high
	clc
	adc     #$30
	sta     $2007
;
; PPU_DATA = NUMBER_0 + time_sec_low;
;
	lda     _time_sec_low
	clc
	adc     #$30
	sta     $2007
;
; reset_scroll();
;
	jmp     _reset_scroll

.endproc

; ---------------------------------------------------------------
; void __near__ input_handler (void)
; ---------------------------------------------------------------

.segment	"CODE"

.proc	_input_handler: near

.segment	"CODE"

;
; if (InputPort1 & BUTTON_UP) {
;
	lda     _InputPort1
	and     #$08
	beq     L00FF
;
; if (player_tl.y > MIN_Y + SPRITE_HEIGHT && player_tr.y > MIN_Y + SPRITE_HEIGHT) {
;
	lda     _player_tl
	cmp     #$11
	bcc     L00FF
	lda     _player_tr
	cmp     #$11
	bcc     L00FF
;
; --player_tr.y;
;
	dec     _player_tr
;
; --player_tl.y;
;
	dec     _player_tl
;
; --player_bl.y;
;
	dec     _player_bl
;
; --player_br.y;
;
	dec     _player_br
;
; state = Going_Up;
;
	lda     #$00
	sta     _state
;
; if (InputPort1 & BUTTON_DOWN) {
;
L00FF:	lda     _InputPort1
	and     #$04
	beq     L0102
;
; if (player_bl.y < MAX_Y - SPRITE_HEIGHT && player_br.y < MAX_Y - SPRITE_HEIGHT) {
;
	lda     _player_bl
	cmp     #$DF
	bcs     L0102
	lda     _player_br
	cmp     #$DF
	bcs     L0102
;
; ++player_tr.y;
;
	inc     _player_tr
;
; ++player_tl.y;
;
	inc     _player_tl
;
; ++player_bl.y;
;
	inc     _player_bl
;
; ++player_br.y;
;
	inc     _player_br
;
; state = Going_Down;
;
	lda     #$01
	sta     _state
;
; if (InputPort1 & BUTTON_LEFT) {
;
L0102:	lda     _InputPort1
	and     #$02
	beq     L0106
;
; if (player_tl.x > MIN_X + SPRITE_WIDTH && player_bl.x > MIN_X + SPRITE_WIDTH) {
;
	lda     _player_tl+3
	cmp     #$11
	bcc     L0106
	lda     _player_bl+3
	cmp     #$11
	bcc     L0106
;
; --player_tl.x;
;
	dec     _player_tl+3
;
; --player_tr.x;
;
	dec     _player_tr+3
;
; --player_bl.x;
;
	dec     _player_bl+3
;
; --player_br.x;
;
	dec     _player_br+3
;
; state = Going_Left;
;
	lda     #$02
	sta     _state
;
; if (InputPort1 & BUTTON_RIGHT) {
;
L0106:	lda     _InputPort1
	and     #$01
	beq     L00C1
;
; ++player_tl.x;
;
	inc     _player_tl+3
;
; ++player_tr.x;
;
	inc     _player_tr+3
;
; ++player_bl.x;
;
	inc     _player_bl+3
;
; ++player_br.x;
;
	inc     _player_br+3
;
; state = Going_Right;
;
	lda     #$03
	sta     _state
;
; }
;
L00C1:	rts

.endproc

; ---------------------------------------------------------------
; void __near__ update_sprite (void)
; ---------------------------------------------------------------

.segment	"CODE"

.proc	_update_sprite: near

.segment	"CODE"

;
; if (state == Going_Up) {
;
	lda     _state
;
; } else if (state == Going_Down) {
;
	beq     L00D9
	cmp     #$01
;
; } else if (state == Going_Left) {
;
	beq     L00D9
	cmp     #$02
	bne     L010B
;
; player_tr.tile_index = 0x81;
;
	lda     #$81
	sta     _player_tr+1
;
; player_tl.tile_index = 0x80;
;
	lda     #$80
;
; } else if (state == Going_Right) {
;
	jmp     L010A
L010B:	lda     _state
	cmp     #$03
	bne     L00D9
;
; player_tr.tile_index = 0x83;
;
	lda     #$83
	sta     _player_tr+1
;
; player_tl.tile_index = 0x82;
;
	lda     #$82
L010A:	sta     _player_tl+1
;
; }
;
L00D9:	rts

.endproc

; ---------------------------------------------------------------
; void __near__ add_second (void)
; ---------------------------------------------------------------

.segment	"CODE"

.proc	_add_second: near

.segment	"CODE"

;
; if (time_sec_low < 9)
;
	lda     _time_sec_low
	cmp     #$09
	bcs     L010C
;
; ++time_sec_low;
;
	inc     _time_sec_low
;
; else if (time_sec_low == 9) {
;
	rts
L010C:	lda     _time_sec_low
	cmp     #$09
	bne     L00F3
;
; time_sec_low = 0;
;
	lda     #$00
	sta     _time_sec_low
;
; if (time_sec_high < 5)
;
	lda     _time_sec_high
	cmp     #$05
	bcs     L010D
;
; ++time_sec_high;
;
	inc     _time_sec_high
;
; else if (time_sec_high == 5) {
;
	rts
L010D:	lda     _time_sec_high
	cmp     #$05
	bne     L00F3
;
; time_sec_high = 0;
;
	lda     #$00
	sta     _time_sec_high
;
; if (time_min < 9) 
;
	lda     _time_min
	cmp     #$09
	bcs     L010E
;
; ++time_min;
;
	inc     _time_min
;
; else {
;
	rts
;
; time_min = 0;
;
L010E:	lda     #$00
	sta     _time_min
;
; time_sec_high = 0;
;
	sta     _time_sec_high
;
; time_sec_low = 0;
;
	sta     _time_sec_low
;
; }
;
L00F3:	rts

.endproc

; ---------------------------------------------------------------
; void __near__ draw_background (void)
; ---------------------------------------------------------------

.segment	"CODE"

.proc	_draw_background: near

.segment	"CODE"

;
; reset_scroll();
;
	jmp     _reset_scroll

.endproc

; ---------------------------------------------------------------
; int __near__ main (void)
; ---------------------------------------------------------------

.segment	"CODE"

.proc	_main: near

.segment	"CODE"

;
; PPU_ADDRESS = BG_PALETTE_HIGH;
;
	lda     #$3F
	sta     $2006
;
; PPU_ADDRESS = BG_PALETTE_LOW;
;
	lda     #$00
	sta     $2006
;
; for (i = 0; i < sizeof(PALETTE); ++i) // always use ++i, instead of i++
;
	sta     _i
	sta     _i+1
L0035:	lda     _i+1
	cmp     #$00
	bne     L003D
	lda     _i
	cmp     #$20
L003D:	bcs     L0036
;
; PPU_DATA = PALETTE[i];
;
	lda     #<(_PALETTE)
	sta     ptr1
	lda     #>(_PALETTE)
	clc
	adc     _i+1
	sta     ptr1+1
	ldy     _i
	lda     (ptr1),y
	sta     $2007
;
; for (i = 0; i < sizeof(PALETTE); ++i) // always use ++i, instead of i++
;
	inc     _i
	bne     L0035
	inc     _i+1
	jmp     L0035
;
; reset_scroll();
;
L0036:	jsr     _reset_scroll
;
; update_time();
;
	jsr     _update_time
;
; player_tl.x = MIN_X + 20;
;
	lda     #$14
	sta     _player_tl+3
;
; player_tl.y = MIN_Y + 20;
;
	sta     _player_tl
;
; player_tl.attributes = 0x00;
;
	lda     #$00
	sta     _player_tl+2
;
; player_tl.tile_index = 0x80;
;
	lda     #$80
	sta     _player_tl+1
;
; player_tr.x = MIN_X + 28;
;
	lda     #$1C
	sta     _player_tr+3
;
; player_tr.y = MIN_Y + 20;
;
	lda     #$14
	sta     _player_tr
;
; player_tr.attributes = 0x00;
;
	lda     #$00
	sta     _player_tr+2
;
; player_tr.tile_index = 0x81;
;
	lda     #$81
	sta     _player_tr+1
;
; player_bl.x = MIN_X + 20;
;
	lda     #$14
	sta     _player_bl+3
;
; player_bl.y = MIN_Y + 28;
;
	lda     #$1C
	sta     _player_bl
;
; player_bl.attributes = 0x00;
;
	lda     #$00
	sta     _player_bl+2
;
; player_bl.tile_index = 0x90;
;
	lda     #$90
	sta     _player_bl+1
;
; player_br.x = MIN_X + 28;
;
	lda     #$1C
	sta     _player_br+3
;
; player_br.y = MIN_Y + 28;
;
	sta     _player_br
;
; player_br.attributes = 0x00;
;
	lda     #$00
	sta     _player_br+2
;
; player_br.tile_index = 0x91;
;
	lda     #$91
	sta     _player_br+1
;
; screen_on();
;
	jsr     _screen_on
;
; WaitFrame(); // wait for vblank/nmi handler in reset.s to trigger
;
L0067:	jsr     _WaitFrame
;
; if (Frame_Number == 60) { // this runs once every second
;
	lda     _Frame_Number
	cmp     #$3C
	bne     L006C
;
; add_second();
;
	jsr     _add_second
;
; Frame_Number = 0;
;
	lda     #$00
	sta     _Frame_Number
;
; update_time();
;
L006C:	jsr     _update_time
;
; input_handler();
;
	jsr     _input_handler
;
; update_sprite();
;
	jsr     _update_sprite
;
; while(1) {
;
	jmp     L0067

.endproc

