;
; File generated by cc65 v 2.16 - Git N/A
;
	.fopt		compiler,"cc65 v 2.16 - Git N/A"
	.setcpu		"6502"
	.smart		on
	.autoimport	on
	.case		on
	.debuginfo	off
	.importzp	sp, sreg, regsave, regbank
	.importzp	tmp1, tmp2, tmp3, tmp4, ptr1, ptr2, ptr3, ptr4
	.macpack	longbranch
	.forceimport	__STARTUP__
	.importzp	_Frame_Number
	.importzp	_InputPort1
	.import		_WaitFrame
	.import		_UnRLE
	.import		_Wait_Vblank
	.export		_i
	.export		_player_tl
	.export		_player_tr
	.export		_player_bl
	.export		_player_br
	.export		_empty
	.export		_level1
	.export		_level2
	.export		_level3
	.export		_level4
	.export		_level5
	.export		_end
	.export		_LEVELS
	.export		_c_map1
	.export		_c_map2
	.export		_c_map3
	.export		_c_map4
	.export		_c_map5
	.export		_PALETTE
	.export		_time_min
	.export		_time_sec_low
	.export		_time_sec_high
	.export		_timer
	.export		_X
	.export		_Y
	.export		_player_state
	.export		_level_status
	.export		_game_state
	.export		_player_left_side
	.export		_player_right_side
	.export		_player_bottom
	.export		_player_top
	.export		_player_center_x
	.export		_player_center_y
	.export		_collision_row
	.export		_collision_col
	.export		_blocked
	.export		_blocked_top
	.export		_blocked_bot
	.export		_level_switch
	.export		_level_target
	.export		_start_x
	.export		_start_y
	.export		_end_x_min
	.export		_end_x_max
	.export		_end_y_min
	.export		_end_y_max
	.export		_end_drawn
	.export		_reset_scroll
	.export		_set_palette
	.export		_init_player
	.export		_set_player
	.export		_screen_on
	.export		_screen_off
	.export		_update_time
	.export		_input_handler
	.export		_update_sprite
	.export		_add_second
	.export		_draw_background
	.export		_get_player_border
	.export		_collision_check_vert
	.export		_collision_check_horiz
	.export		_passed_level
	.export		_level_intro
	.export		_level3_tele_logic
	.export		_level4_tele_logic
	.export		_level5_tele_logic
	.export		_draw_title
	.export		_clear_nametable
	.export		_draw_end
	.export		_main

.segment	"DATA"

_time_min:
	.byte	$00
_time_sec_low:
	.byte	$00
_time_sec_high:
	.byte	$00
_timer:
	.byte	$00
_X:
	.byte	$50
_Y:
	.byte	$50
_level_status:
	.byte	$01
_level_switch:
	.byte	$00
_level_target:
	.byte	$00
_end_drawn:
	.byte	$00

.segment	"RODATA"

_empty:
	.byte	$01
	.byte	$00
	.byte	$01
	.byte	$FE
	.byte	$00
	.byte	$01
	.byte	$FE
	.byte	$00
	.byte	$01
	.byte	$FE
	.byte	$00
	.byte	$01
	.byte	$C1
	.byte	$00
	.byte	$01
	.byte	$00
_level1:
	.byte	$01
	.byte	$00
	.byte	$01
	.byte	$FE
	.byte	$00
	.byte	$01
	.byte	$4E
	.byte	$A2
	.byte	$01
	.byte	$03
	.byte	$00
	.byte	$01
	.byte	$17
	.byte	$A0
	.byte	$A1
	.byte	$A2
	.byte	$01
	.byte	$07
	.byte	$A0
	.byte	$A1
	.byte	$00
	.byte	$01
	.byte	$13
	.byte	$A3
	.byte	$A5
	.byte	$00
	.byte	$01
	.byte	$07
	.byte	$A3
	.byte	$A5
	.byte	$00
	.byte	$01
	.byte	$13
	.byte	$A3
	.byte	$A5
	.byte	$00
	.byte	$01
	.byte	$05
	.byte	$B0
	.byte	$B1
	.byte	$A3
	.byte	$A5
	.byte	$00
	.byte	$01
	.byte	$12
	.byte	$D3
	.byte	$A3
	.byte	$A5
	.byte	$D3
	.byte	$01
	.byte	$02
	.byte	$00
	.byte	$01
	.byte	$02
	.byte	$C0
	.byte	$C1
	.byte	$A3
	.byte	$A5
	.byte	$D3
	.byte	$D3
	.byte	$00
	.byte	$01
	.byte	$11
	.byte	$A3
	.byte	$A5
	.byte	$00
	.byte	$01
	.byte	$07
	.byte	$A3
	.byte	$A5
	.byte	$00
	.byte	$01
	.byte	$13
	.byte	$A6
	.byte	$A7
	.byte	$A4
	.byte	$01
	.byte	$07
	.byte	$A6
	.byte	$A7
	.byte	$00
	.byte	$01
	.byte	$17
	.byte	$A4
	.byte	$01
	.byte	$03
	.byte	$00
	.byte	$01
	.byte	$FE
	.byte	$00
	.byte	$01
	.byte	$8D
	.byte	$00
	.byte	$01
	.byte	$00
_level2:
	.byte	$01
	.byte	$00
	.byte	$01
	.byte	$05
	.byte	$C4
	.byte	$01
	.byte	$02
	.byte	$00
	.byte	$01
	.byte	$1B
	.byte	$C4
	.byte	$01
	.byte	$05
	.byte	$00
	.byte	$01
	.byte	$18
	.byte	$C4
	.byte	$01
	.byte	$05
	.byte	$00
	.byte	$00
	.byte	$C4
	.byte	$01
	.byte	$02
	.byte	$00
	.byte	$01
	.byte	$14
	.byte	$C4
	.byte	$C4
	.byte	$00
	.byte	$C4
	.byte	$01
	.byte	$09
	.byte	$00
	.byte	$01
	.byte	$12
	.byte	$C4
	.byte	$C4
	.byte	$00
	.byte	$C4
	.byte	$01
	.byte	$09
	.byte	$2D
	.byte	$00
	.byte	$01
	.byte	$11
	.byte	$D6
	.byte	$01
	.byte	$08
	.byte	$00
	.byte	$D6
	.byte	$D6
	.byte	$C4
	.byte	$C4
	.byte	$00
	.byte	$01
	.byte	$11
	.byte	$C4
	.byte	$D6
	.byte	$01
	.byte	$09
	.byte	$E7
	.byte	$E7
	.byte	$A4
	.byte	$01
	.byte	$09
	.byte	$E7
	.byte	$00
	.byte	$01
	.byte	$07
	.byte	$C4
	.byte	$D6
	.byte	$A4
	.byte	$01
	.byte	$09
	.byte	$A7
	.byte	$D4
	.byte	$E7
	.byte	$C4
	.byte	$D4
	.byte	$00
	.byte	$B8
	.byte	$D2
	.byte	$B8
	.byte	$B8
	.byte	$00
	.byte	$A3
	.byte	$00
	.byte	$01
	.byte	$08
	.byte	$A5
	.byte	$D9
	.byte	$01
	.byte	$07
	.byte	$D5
	.byte	$D9
	.byte	$B8
	.byte	$B8
	.byte	$C4
	.byte	$D8
	.byte	$D4
	.byte	$B8
	.byte	$C4
	.byte	$D2
	.byte	$B8
	.byte	$B8
	.byte	$E7
	.byte	$A3
	.byte	$00
	.byte	$01
	.byte	$08
	.byte	$A5
	.byte	$D6
	.byte	$D6
	.byte	$C7
	.byte	$C9
	.byte	$D5
	.byte	$D6
	.byte	$00
	.byte	$D6
	.byte	$D5
	.byte	$F6
	.byte	$B8
	.byte	$B8
	.byte	$D4
	.byte	$01
	.byte	$02
	.byte	$B8
	.byte	$C4
	.byte	$A0
	.byte	$A1
	.byte	$A4
	.byte	$A4
	.byte	$A3
	.byte	$D4
	.byte	$00
	.byte	$01
	.byte	$07
	.byte	$C4
	.byte	$A1
	.byte	$CA
	.byte	$C7
	.byte	$A0
	.byte	$A1
	.byte	$E5
	.byte	$E2
	.byte	$A0
	.byte	$A1
	.byte	$C5
	.byte	$B8
	.byte	$A0
	.byte	$A2
	.byte	$A2
	.byte	$A1
	.byte	$C5
	.byte	$C5
	.byte	$A6
	.byte	$A7
	.byte	$D7
	.byte	$D7
	.byte	$A6
	.byte	$D4
	.byte	$00
	.byte	$00
	.byte	$CA
	.byte	$00
	.byte	$01
	.byte	$04
	.byte	$C4
	.byte	$A5
	.byte	$CA
	.byte	$D6
	.byte	$A6
	.byte	$A7
	.byte	$E5
	.byte	$E2
	.byte	$A6
	.byte	$A7
	.byte	$D2
	.byte	$D2
	.byte	$A6
	.byte	$A4
	.byte	$A4
	.byte	$A7
	.byte	$D4
	.byte	$C9
	.byte	$E5
	.byte	$C4
	.byte	$D2
	.byte	$E7
	.byte	$D1
	.byte	$A3
	.byte	$00
	.byte	$00
	.byte	$CA
	.byte	$00
	.byte	$01
	.byte	$03
	.byte	$D6
	.byte	$C4
	.byte	$A5
	.byte	$CA
	.byte	$D6
	.byte	$B3
	.byte	$B3
	.byte	$D2
	.byte	$E2
	.byte	$D4
	.byte	$D4
	.byte	$B8
	.byte	$D2
	.byte	$A5
	.byte	$B8
	.byte	$D4
	.byte	$E7
	.byte	$D6
	.byte	$E7
	.byte	$E7
	.byte	$C4
	.byte	$E7
	.byte	$E7
	.byte	$D1
	.byte	$A3
	.byte	$00
	.byte	$CA
	.byte	$CA
	.byte	$00
	.byte	$01
	.byte	$04
	.byte	$D6
	.byte	$A5
	.byte	$CA
	.byte	$D6
	.byte	$D5
	.byte	$01
	.byte	$02
	.byte	$C5
	.byte	$01
	.byte	$03
	.byte	$D2
	.byte	$A5
	.byte	$EA
	.byte	$D5
	.byte	$E7
	.byte	$D3
	.byte	$C5
	.byte	$C3
	.byte	$01
	.byte	$02
	.byte	$E7
	.byte	$D1
	.byte	$A3
	.byte	$00
	.byte	$01
	.byte	$07
	.byte	$C4
	.byte	$A7
	.byte	$A2
	.byte	$A1
	.byte	$D5
	.byte	$B6
	.byte	$A0
	.byte	$A2
	.byte	$A1
	.byte	$D4
	.byte	$D6
	.byte	$A0
	.byte	$A1
	.byte	$D5
	.byte	$D5
	.byte	$A0
	.byte	$A1
	.byte	$D6
	.byte	$E7
	.byte	$A0
	.byte	$A1
	.byte	$D5
	.byte	$D5
	.byte	$A3
	.byte	$00
	.byte	$01
	.byte	$07
	.byte	$C4
	.byte	$A3
	.byte	$A6
	.byte	$A7
	.byte	$D6
	.byte	$B6
	.byte	$A6
	.byte	$A4
	.byte	$A7
	.byte	$D4
	.byte	$D6
	.byte	$A6
	.byte	$A7
	.byte	$D5
	.byte	$D5
	.byte	$A3
	.byte	$A5
	.byte	$A4
	.byte	$A4
	.byte	$A6
	.byte	$A7
	.byte	$D3
	.byte	$D3
	.byte	$A3
	.byte	$00
	.byte	$00
	.byte	$CA
	.byte	$00
	.byte	$01
	.byte	$04
	.byte	$C4
	.byte	$A3
	.byte	$9B
	.byte	$E9
	.byte	$D6
	.byte	$D6
	.byte	$C3
	.byte	$D2
	.byte	$D2
	.byte	$C3
	.byte	$D4
	.byte	$D6
	.byte	$D6
	.byte	$C4
	.byte	$C4
	.byte	$A6
	.byte	$A7
	.byte	$E7
	.byte	$E7
	.byte	$B8
	.byte	$DA
	.byte	$F2
	.byte	$00
	.byte	$A3
	.byte	$00
	.byte	$01
	.byte	$07
	.byte	$C4
	.byte	$A1
	.byte	$E9
	.byte	$E9
	.byte	$D8
	.byte	$F5
	.byte	$C5
	.byte	$D2
	.byte	$D2
	.byte	$D6
	.byte	$E7
	.byte	$01
	.byte	$03
	.byte	$E4
	.byte	$A5
	.byte	$EC
	.byte	$E7
	.byte	$E7
	.byte	$B8
	.byte	$DA
	.byte	$F2
	.byte	$00
	.byte	$A3
	.byte	$00
	.byte	$01
	.byte	$08
	.byte	$A5
	.byte	$C4
	.byte	$C4
	.byte	$A0
	.byte	$A1
	.byte	$D9
	.byte	$D9
	.byte	$A0
	.byte	$A2
	.byte	$A1
	.byte	$E7
	.byte	$E7
	.byte	$C6
	.byte	$E4
	.byte	$A5
	.byte	$DA
	.byte	$E7
	.byte	$00
	.byte	$01
	.byte	$02
	.byte	$E7
	.byte	$00
	.byte	$A3
	.byte	$00
	.byte	$01
	.byte	$08
	.byte	$A5
	.byte	$EA
	.byte	$D6
	.byte	$A3
	.byte	$A5
	.byte	$D6
	.byte	$D9
	.byte	$A3
	.byte	$E7
	.byte	$A5
	.byte	$E7
	.byte	$C2
	.byte	$A0
	.byte	$A2
	.byte	$A1
	.byte	$E3
	.byte	$E3
	.byte	$A0
	.byte	$A2
	.byte	$A1
	.byte	$E7
	.byte	$00
	.byte	$A3
	.byte	$00
	.byte	$01
	.byte	$08
	.byte	$A5
	.byte	$C4
	.byte	$D6
	.byte	$A6
	.byte	$A7
	.byte	$D9
	.byte	$D9
	.byte	$A6
	.byte	$A4
	.byte	$A7
	.byte	$A4
	.byte	$A4
	.byte	$A6
	.byte	$A4
	.byte	$A7
	.byte	$D7
	.byte	$D7
	.byte	$A6
	.byte	$A4
	.byte	$A7
	.byte	$E7
	.byte	$00
	.byte	$A3
	.byte	$00
	.byte	$01
	.byte	$08
	.byte	$A5
	.byte	$EA
	.byte	$EA
	.byte	$00
	.byte	$E7
	.byte	$D8
	.byte	$E7
	.byte	$CA
	.byte	$E7
	.byte	$D8
	.byte	$A5
	.byte	$D8
	.byte	$C7
	.byte	$C7
	.byte	$D8
	.byte	$01
	.byte	$02
	.byte	$C6
	.byte	$D8
	.byte	$E7
	.byte	$E7
	.byte	$00
	.byte	$A3
	.byte	$00
	.byte	$01
	.byte	$08
	.byte	$A5
	.byte	$C4
	.byte	$00
	.byte	$00
	.byte	$D3
	.byte	$01
	.byte	$02
	.byte	$CA
	.byte	$D5
	.byte	$C5
	.byte	$A5
	.byte	$D8
	.byte	$C7
	.byte	$D8
	.byte	$01
	.byte	$03
	.byte	$C6
	.byte	$C6
	.byte	$E7
	.byte	$E7
	.byte	$00
	.byte	$A3
	.byte	$00
	.byte	$01
	.byte	$09
	.byte	$A2
	.byte	$01
	.byte	$08
	.byte	$A1
	.byte	$B0
	.byte	$B1
	.byte	$A0
	.byte	$A2
	.byte	$01
	.byte	$07
	.byte	$D1
	.byte	$00
	.byte	$01
	.byte	$12
	.byte	$A5
	.byte	$C0
	.byte	$C1
	.byte	$A3
	.byte	$00
	.byte	$01
	.byte	$04
	.byte	$E7
	.byte	$00
	.byte	$01
	.byte	$16
	.byte	$A2
	.byte	$A2
	.byte	$00
	.byte	$01
	.byte	$7F
	.byte	$D4
	.byte	$00
	.byte	$01
	.byte	$0A
	.byte	$00
	.byte	$01
	.byte	$00
_level3:
	.byte	$01
	.byte	$00
	.byte	$E4
	.byte	$E4
	.byte	$00
	.byte	$01
	.byte	$1D
	.byte	$E4
	.byte	$00
	.byte	$01
	.byte	$1E
	.byte	$E4
	.byte	$E4
	.byte	$00
	.byte	$01
	.byte	$1D
	.byte	$E4
	.byte	$01
	.byte	$09
	.byte	$00
	.byte	$01
	.byte	$15
	.byte	$E4
	.byte	$01
	.byte	$09
	.byte	$00
	.byte	$01
	.byte	$0A
	.byte	$E4
	.byte	$01
	.byte	$08
	.byte	$00
	.byte	$01
	.byte	$02
	.byte	$E4
	.byte	$01
	.byte	$02
	.byte	$00
	.byte	$00
	.byte	$E4
	.byte	$01
	.byte	$03
	.byte	$00
	.byte	$01
	.byte	$0A
	.byte	$E4
	.byte	$00
	.byte	$01
	.byte	$04
	.byte	$E4
	.byte	$01
	.byte	$02
	.byte	$00
	.byte	$00
	.byte	$E4
	.byte	$01
	.byte	$03
	.byte	$00
	.byte	$00
	.byte	$E4
	.byte	$01
	.byte	$03
	.byte	$00
	.byte	$01
	.byte	$0A
	.byte	$E4
	.byte	$00
	.byte	$01
	.byte	$02
	.byte	$E4
	.byte	$01
	.byte	$05
	.byte	$00
	.byte	$00
	.byte	$E4
	.byte	$E4
	.byte	$00
	.byte	$00
	.byte	$E4
	.byte	$01
	.byte	$13
	.byte	$00
	.byte	$01
	.byte	$02
	.byte	$E4
	.byte	$01
	.byte	$02
	.byte	$00
	.byte	$00
	.byte	$E4
	.byte	$01
	.byte	$02
	.byte	$A0
	.byte	$A2
	.byte	$01
	.byte	$12
	.byte	$A1
	.byte	$00
	.byte	$01
	.byte	$02
	.byte	$E4
	.byte	$01
	.byte	$02
	.byte	$00
	.byte	$00
	.byte	$E4
	.byte	$01
	.byte	$02
	.byte	$A3
	.byte	$00
	.byte	$E4
	.byte	$01
	.byte	$03
	.byte	$00
	.byte	$01
	.byte	$05
	.byte	$B3
	.byte	$01
	.byte	$04
	.byte	$E4
	.byte	$B0
	.byte	$B1
	.byte	$A5
	.byte	$00
	.byte	$00
	.byte	$E4
	.byte	$01
	.byte	$03
	.byte	$00
	.byte	$00
	.byte	$E4
	.byte	$01
	.byte	$02
	.byte	$A3
	.byte	$E4
	.byte	$01
	.byte	$0D
	.byte	$00
	.byte	$E4
	.byte	$E4
	.byte	$C0
	.byte	$C1
	.byte	$A5
	.byte	$E4
	.byte	$01
	.byte	$05
	.byte	$00
	.byte	$00
	.byte	$E4
	.byte	$01
	.byte	$02
	.byte	$A3
	.byte	$E4
	.byte	$01
	.byte	$12
	.byte	$A5
	.byte	$E4
	.byte	$01
	.byte	$04
	.byte	$00
	.byte	$01
	.byte	$02
	.byte	$E4
	.byte	$E4
	.byte	$00
	.byte	$A3
	.byte	$00
	.byte	$E4
	.byte	$01
	.byte	$02
	.byte	$00
	.byte	$00
	.byte	$E4
	.byte	$01
	.byte	$07
	.byte	$00
	.byte	$01
	.byte	$02
	.byte	$E4
	.byte	$E4
	.byte	$A5
	.byte	$D9
	.byte	$01
	.byte	$02
	.byte	$00
	.byte	$01
	.byte	$04
	.byte	$E4
	.byte	$E4
	.byte	$00
	.byte	$A3
	.byte	$00
	.byte	$E4
	.byte	$01
	.byte	$02
	.byte	$00
	.byte	$00
	.byte	$E4
	.byte	$01
	.byte	$08
	.byte	$00
	.byte	$00
	.byte	$E4
	.byte	$E4
	.byte	$A5
	.byte	$00
	.byte	$01
	.byte	$07
	.byte	$E4
	.byte	$E4
	.byte	$00
	.byte	$A3
	.byte	$E4
	.byte	$01
	.byte	$03
	.byte	$00
	.byte	$00
	.byte	$E4
	.byte	$01
	.byte	$09
	.byte	$00
	.byte	$B0
	.byte	$B1
	.byte	$A5
	.byte	$00
	.byte	$01
	.byte	$0A
	.byte	$A3
	.byte	$00
	.byte	$00
	.byte	$E4
	.byte	$E4
	.byte	$00
	.byte	$E4
	.byte	$01
	.byte	$0A
	.byte	$00
	.byte	$C0
	.byte	$C1
	.byte	$A5
	.byte	$00
	.byte	$01
	.byte	$0A
	.byte	$A6
	.byte	$A4
	.byte	$01
	.byte	$12
	.byte	$A7
	.byte	$00
	.byte	$01
	.byte	$0A
	.byte	$E4
	.byte	$00
	.byte	$E4
	.byte	$01
	.byte	$02
	.byte	$D4
	.byte	$00
	.byte	$01
	.byte	$02
	.byte	$E4
	.byte	$01
	.byte	$02
	.byte	$00
	.byte	$01
	.byte	$05
	.byte	$E4
	.byte	$01
	.byte	$02
	.byte	$00
	.byte	$01
	.byte	$08
	.byte	$E4
	.byte	$01
	.byte	$19
	.byte	$00
	.byte	$01
	.byte	$05
	.byte	$E4
	.byte	$E4
	.byte	$00
	.byte	$E4
	.byte	$E4
	.byte	$00
	.byte	$E4
	.byte	$01
	.byte	$03
	.byte	$D4
	.byte	$01
	.byte	$04
	.byte	$00
	.byte	$01
	.byte	$06
	.byte	$E4
	.byte	$00
	.byte	$00
	.byte	$E4
	.byte	$00
	.byte	$01
	.byte	$05
	.byte	$E4
	.byte	$E4
	.byte	$00
	.byte	$E4
	.byte	$E4
	.byte	$00
	.byte	$01
	.byte	$10
	.byte	$E4
	.byte	$00
	.byte	$00
	.byte	$E4
	.byte	$00
	.byte	$01
	.byte	$06
	.byte	$E4
	.byte	$01
	.byte	$03
	.byte	$00
	.byte	$01
	.byte	$10
	.byte	$E4
	.byte	$00
	.byte	$00
	.byte	$E4
	.byte	$00
	.byte	$01
	.byte	$06
	.byte	$E4
	.byte	$00
	.byte	$00
	.byte	$E4
	.byte	$00
	.byte	$01
	.byte	$10
	.byte	$E4
	.byte	$00
	.byte	$00
	.byte	$E4
	.byte	$00
	.byte	$01
	.byte	$06
	.byte	$E4
	.byte	$00
	.byte	$00
	.byte	$E4
	.byte	$00
	.byte	$01
	.byte	$10
	.byte	$E4
	.byte	$E4
	.byte	$00
	.byte	$E4
	.byte	$00
	.byte	$01
	.byte	$06
	.byte	$E4
	.byte	$E4
	.byte	$00
	.byte	$E4
	.byte	$00
	.byte	$01
	.byte	$11
	.byte	$E4
	.byte	$00
	.byte	$E4
	.byte	$00
	.byte	$01
	.byte	$06
	.byte	$E4
	.byte	$01
	.byte	$04
	.byte	$00
	.byte	$01
	.byte	$0C
	.byte	$E4
	.byte	$01
	.byte	$02
	.byte	$00
	.byte	$E4
	.byte	$01
	.byte	$02
	.byte	$00
	.byte	$01
	.byte	$06
	.byte	$E4
	.byte	$01
	.byte	$04
	.byte	$00
	.byte	$01
	.byte	$02
	.byte	$E4
	.byte	$E4
	.byte	$00
	.byte	$01
	.byte	$03
	.byte	$E4
	.byte	$01
	.byte	$03
	.byte	$00
	.byte	$01
	.byte	$02
	.byte	$E4
	.byte	$01
	.byte	$03
	.byte	$00
	.byte	$01
	.byte	$05
	.byte	$E4
	.byte	$01
	.byte	$19
	.byte	$00
	.byte	$01
	.byte	$06
	.byte	$E4
	.byte	$00
	.byte	$01
	.byte	$04
	.byte	$E4
	.byte	$E4
	.byte	$B9
	.byte	$B9
	.byte	$00
	.byte	$01
	.byte	$05
	.byte	$B9
	.byte	$B9
	.byte	$E4
	.byte	$E4
	.byte	$B9
	.byte	$B9
	.byte	$00
	.byte	$01
	.byte	$08
	.byte	$E4
	.byte	$E4
	.byte	$00
	.byte	$01
	.byte	$0E
	.byte	$B9
	.byte	$00
	.byte	$01
	.byte	$09
	.byte	$00
	.byte	$01
	.byte	$00
_level4:
	.byte	$01
	.byte	$00
	.byte	$E4
	.byte	$E4
	.byte	$00
	.byte	$01
	.byte	$1D
	.byte	$E4
	.byte	$00
	.byte	$01
	.byte	$1E
	.byte	$E4
	.byte	$E4
	.byte	$00
	.byte	$01
	.byte	$1D
	.byte	$E4
	.byte	$01
	.byte	$09
	.byte	$00
	.byte	$01
	.byte	$15
	.byte	$E4
	.byte	$01
	.byte	$09
	.byte	$00
	.byte	$01
	.byte	$0A
	.byte	$E4
	.byte	$01
	.byte	$08
	.byte	$00
	.byte	$01
	.byte	$02
	.byte	$E4
	.byte	$01
	.byte	$02
	.byte	$00
	.byte	$00
	.byte	$E4
	.byte	$01
	.byte	$03
	.byte	$00
	.byte	$01
	.byte	$0A
	.byte	$E4
	.byte	$00
	.byte	$01
	.byte	$04
	.byte	$E4
	.byte	$01
	.byte	$02
	.byte	$00
	.byte	$00
	.byte	$E4
	.byte	$01
	.byte	$03
	.byte	$00
	.byte	$00
	.byte	$E4
	.byte	$01
	.byte	$03
	.byte	$00
	.byte	$01
	.byte	$0A
	.byte	$E4
	.byte	$00
	.byte	$01
	.byte	$02
	.byte	$E4
	.byte	$01
	.byte	$05
	.byte	$00
	.byte	$00
	.byte	$E4
	.byte	$E4
	.byte	$00
	.byte	$00
	.byte	$E4
	.byte	$01
	.byte	$13
	.byte	$00
	.byte	$01
	.byte	$02
	.byte	$E4
	.byte	$01
	.byte	$02
	.byte	$00
	.byte	$00
	.byte	$E4
	.byte	$01
	.byte	$02
	.byte	$A0
	.byte	$A2
	.byte	$01
	.byte	$12
	.byte	$A1
	.byte	$00
	.byte	$01
	.byte	$02
	.byte	$E4
	.byte	$01
	.byte	$02
	.byte	$00
	.byte	$00
	.byte	$E4
	.byte	$01
	.byte	$02
	.byte	$A3
	.byte	$00
	.byte	$E4
	.byte	$01
	.byte	$03
	.byte	$00
	.byte	$01
	.byte	$05
	.byte	$B3
	.byte	$01
	.byte	$04
	.byte	$E4
	.byte	$B0
	.byte	$B1
	.byte	$A5
	.byte	$00
	.byte	$00
	.byte	$E4
	.byte	$01
	.byte	$03
	.byte	$00
	.byte	$00
	.byte	$E4
	.byte	$01
	.byte	$02
	.byte	$A3
	.byte	$E4
	.byte	$01
	.byte	$0D
	.byte	$00
	.byte	$E4
	.byte	$E4
	.byte	$C0
	.byte	$C1
	.byte	$A5
	.byte	$E4
	.byte	$01
	.byte	$05
	.byte	$00
	.byte	$00
	.byte	$E4
	.byte	$01
	.byte	$02
	.byte	$A3
	.byte	$E4
	.byte	$01
	.byte	$12
	.byte	$A5
	.byte	$E4
	.byte	$01
	.byte	$04
	.byte	$00
	.byte	$01
	.byte	$02
	.byte	$E4
	.byte	$E4
	.byte	$00
	.byte	$A3
	.byte	$00
	.byte	$E4
	.byte	$01
	.byte	$02
	.byte	$00
	.byte	$00
	.byte	$E4
	.byte	$01
	.byte	$07
	.byte	$00
	.byte	$01
	.byte	$02
	.byte	$E4
	.byte	$E4
	.byte	$A5
	.byte	$D9
	.byte	$01
	.byte	$02
	.byte	$00
	.byte	$01
	.byte	$04
	.byte	$E4
	.byte	$E4
	.byte	$00
	.byte	$A3
	.byte	$00
	.byte	$E4
	.byte	$01
	.byte	$02
	.byte	$00
	.byte	$00
	.byte	$E4
	.byte	$01
	.byte	$08
	.byte	$00
	.byte	$00
	.byte	$E4
	.byte	$E4
	.byte	$A5
	.byte	$00
	.byte	$01
	.byte	$07
	.byte	$E4
	.byte	$E4
	.byte	$00
	.byte	$A3
	.byte	$E4
	.byte	$01
	.byte	$03
	.byte	$00
	.byte	$00
	.byte	$E4
	.byte	$01
	.byte	$09
	.byte	$00
	.byte	$B0
	.byte	$B1
	.byte	$A5
	.byte	$00
	.byte	$01
	.byte	$0A
	.byte	$A3
	.byte	$00
	.byte	$00
	.byte	$E4
	.byte	$E4
	.byte	$00
	.byte	$E4
	.byte	$01
	.byte	$0A
	.byte	$00
	.byte	$C0
	.byte	$C1
	.byte	$A5
	.byte	$00
	.byte	$01
	.byte	$0A
	.byte	$A6
	.byte	$A4
	.byte	$01
	.byte	$12
	.byte	$A7
	.byte	$00
	.byte	$01
	.byte	$0A
	.byte	$E4
	.byte	$00
	.byte	$E4
	.byte	$01
	.byte	$02
	.byte	$D4
	.byte	$00
	.byte	$01
	.byte	$02
	.byte	$E4
	.byte	$01
	.byte	$02
	.byte	$00
	.byte	$01
	.byte	$05
	.byte	$E4
	.byte	$01
	.byte	$02
	.byte	$00
	.byte	$01
	.byte	$08
	.byte	$E4
	.byte	$01
	.byte	$19
	.byte	$00
	.byte	$01
	.byte	$05
	.byte	$E4
	.byte	$E4
	.byte	$00
	.byte	$E4
	.byte	$E4
	.byte	$00
	.byte	$E4
	.byte	$01
	.byte	$03
	.byte	$D4
	.byte	$01
	.byte	$04
	.byte	$00
	.byte	$01
	.byte	$06
	.byte	$E4
	.byte	$00
	.byte	$00
	.byte	$E4
	.byte	$00
	.byte	$01
	.byte	$05
	.byte	$E4
	.byte	$E4
	.byte	$00
	.byte	$E4
	.byte	$E4
	.byte	$00
	.byte	$01
	.byte	$10
	.byte	$E4
	.byte	$00
	.byte	$00
	.byte	$E4
	.byte	$00
	.byte	$01
	.byte	$06
	.byte	$E4
	.byte	$01
	.byte	$03
	.byte	$00
	.byte	$01
	.byte	$10
	.byte	$E4
	.byte	$00
	.byte	$00
	.byte	$E4
	.byte	$00
	.byte	$01
	.byte	$06
	.byte	$E4
	.byte	$00
	.byte	$00
	.byte	$E4
	.byte	$00
	.byte	$01
	.byte	$10
	.byte	$E4
	.byte	$00
	.byte	$00
	.byte	$E4
	.byte	$00
	.byte	$01
	.byte	$06
	.byte	$E4
	.byte	$00
	.byte	$00
	.byte	$E4
	.byte	$00
	.byte	$01
	.byte	$10
	.byte	$E4
	.byte	$E4
	.byte	$00
	.byte	$E4
	.byte	$00
	.byte	$01
	.byte	$06
	.byte	$E4
	.byte	$E4
	.byte	$00
	.byte	$E4
	.byte	$00
	.byte	$01
	.byte	$11
	.byte	$E4
	.byte	$00
	.byte	$E4
	.byte	$00
	.byte	$01
	.byte	$06
	.byte	$E4
	.byte	$01
	.byte	$04
	.byte	$00
	.byte	$01
	.byte	$0C
	.byte	$E4
	.byte	$01
	.byte	$02
	.byte	$00
	.byte	$E4
	.byte	$01
	.byte	$02
	.byte	$00
	.byte	$01
	.byte	$06
	.byte	$E4
	.byte	$01
	.byte	$04
	.byte	$00
	.byte	$01
	.byte	$02
	.byte	$E4
	.byte	$E4
	.byte	$00
	.byte	$01
	.byte	$03
	.byte	$E4
	.byte	$01
	.byte	$03
	.byte	$00
	.byte	$01
	.byte	$02
	.byte	$E4
	.byte	$01
	.byte	$03
	.byte	$00
	.byte	$01
	.byte	$05
	.byte	$E4
	.byte	$01
	.byte	$19
	.byte	$00
	.byte	$01
	.byte	$06
	.byte	$E4
	.byte	$00
	.byte	$01
	.byte	$04
	.byte	$E4
	.byte	$E4
	.byte	$B9
	.byte	$B9
	.byte	$00
	.byte	$01
	.byte	$05
	.byte	$B9
	.byte	$B9
	.byte	$E4
	.byte	$E4
	.byte	$B9
	.byte	$B9
	.byte	$00
	.byte	$01
	.byte	$08
	.byte	$E4
	.byte	$E4
	.byte	$00
	.byte	$01
	.byte	$0E
	.byte	$B9
	.byte	$00
	.byte	$01
	.byte	$09
	.byte	$00
	.byte	$01
	.byte	$00
_level5:
	.byte	$01
	.byte	$00
	.byte	$01
	.byte	$81
	.byte	$A0
	.byte	$A2
	.byte	$01
	.byte	$06
	.byte	$A1
	.byte	$00
	.byte	$01
	.byte	$0A
	.byte	$A0
	.byte	$A2
	.byte	$01
	.byte	$06
	.byte	$A1
	.byte	$00
	.byte	$01
	.byte	$02
	.byte	$A3
	.byte	$00
	.byte	$01
	.byte	$04
	.byte	$B0
	.byte	$B1
	.byte	$A5
	.byte	$00
	.byte	$01
	.byte	$0A
	.byte	$A3
	.byte	$00
	.byte	$01
	.byte	$04
	.byte	$B0
	.byte	$B1
	.byte	$A5
	.byte	$00
	.byte	$01
	.byte	$02
	.byte	$A3
	.byte	$00
	.byte	$01
	.byte	$04
	.byte	$C0
	.byte	$C1
	.byte	$A5
	.byte	$00
	.byte	$01
	.byte	$0A
	.byte	$A3
	.byte	$00
	.byte	$01
	.byte	$04
	.byte	$C0
	.byte	$C1
	.byte	$A5
	.byte	$00
	.byte	$01
	.byte	$02
	.byte	$A3
	.byte	$00
	.byte	$01
	.byte	$06
	.byte	$A5
	.byte	$A2
	.byte	$01
	.byte	$0A
	.byte	$A3
	.byte	$00
	.byte	$01
	.byte	$06
	.byte	$A5
	.byte	$00
	.byte	$01
	.byte	$02
	.byte	$A3
	.byte	$00
	.byte	$01
	.byte	$06
	.byte	$A5
	.byte	$A4
	.byte	$01
	.byte	$0A
	.byte	$A3
	.byte	$00
	.byte	$01
	.byte	$06
	.byte	$A5
	.byte	$00
	.byte	$01
	.byte	$02
	.byte	$A3
	.byte	$B0
	.byte	$B1
	.byte	$00
	.byte	$01
	.byte	$02
	.byte	$B0
	.byte	$B1
	.byte	$A5
	.byte	$00
	.byte	$01
	.byte	$05
	.byte	$B3
	.byte	$01
	.byte	$04
	.byte	$A3
	.byte	$00
	.byte	$01
	.byte	$04
	.byte	$B0
	.byte	$B1
	.byte	$A5
	.byte	$00
	.byte	$01
	.byte	$02
	.byte	$A3
	.byte	$C0
	.byte	$C1
	.byte	$00
	.byte	$01
	.byte	$02
	.byte	$C0
	.byte	$C1
	.byte	$A5
	.byte	$00
	.byte	$01
	.byte	$0A
	.byte	$A3
	.byte	$00
	.byte	$01
	.byte	$04
	.byte	$C0
	.byte	$C1
	.byte	$A5
	.byte	$00
	.byte	$01
	.byte	$02
	.byte	$A6
	.byte	$A4
	.byte	$01
	.byte	$06
	.byte	$A7
	.byte	$00
	.byte	$00
	.byte	$A0
	.byte	$A2
	.byte	$01
	.byte	$03
	.byte	$A1
	.byte	$00
	.byte	$01
	.byte	$02
	.byte	$A6
	.byte	$A4
	.byte	$01
	.byte	$06
	.byte	$A7
	.byte	$00
	.byte	$01
	.byte	$08
	.byte	$A3
	.byte	$A5
	.byte	$00
	.byte	$01
	.byte	$02
	.byte	$A3
	.byte	$00
	.byte	$01
	.byte	$03
	.byte	$A5
	.byte	$00
	.byte	$01
	.byte	$03
	.byte	$A3
	.byte	$A5
	.byte	$D9
	.byte	$01
	.byte	$03
	.byte	$00
	.byte	$01
	.byte	$0A
	.byte	$A3
	.byte	$A5
	.byte	$00
	.byte	$01
	.byte	$02
	.byte	$A3
	.byte	$00
	.byte	$B0
	.byte	$B1
	.byte	$00
	.byte	$A5
	.byte	$00
	.byte	$01
	.byte	$03
	.byte	$A3
	.byte	$A5
	.byte	$00
	.byte	$01
	.byte	$0E
	.byte	$A3
	.byte	$A5
	.byte	$00
	.byte	$01
	.byte	$02
	.byte	$A3
	.byte	$00
	.byte	$C0
	.byte	$C1
	.byte	$00
	.byte	$A5
	.byte	$00
	.byte	$01
	.byte	$03
	.byte	$A3
	.byte	$A5
	.byte	$00
	.byte	$01
	.byte	$0E
	.byte	$A3
	.byte	$A5
	.byte	$00
	.byte	$01
	.byte	$02
	.byte	$A3
	.byte	$00
	.byte	$01
	.byte	$03
	.byte	$A5
	.byte	$00
	.byte	$01
	.byte	$03
	.byte	$A3
	.byte	$A5
	.byte	$00
	.byte	$01
	.byte	$0E
	.byte	$A3
	.byte	$A5
	.byte	$00
	.byte	$01
	.byte	$02
	.byte	$A6
	.byte	$A4
	.byte	$01
	.byte	$03
	.byte	$A7
	.byte	$00
	.byte	$01
	.byte	$03
	.byte	$A3
	.byte	$A5
	.byte	$00
	.byte	$01
	.byte	$0E
	.byte	$A6
	.byte	$A7
	.byte	$D4
	.byte	$00
	.byte	$01
	.byte	$0B
	.byte	$A6
	.byte	$A7
	.byte	$00
	.byte	$01
	.byte	$0A
	.byte	$A0
	.byte	$A2
	.byte	$01
	.byte	$16
	.byte	$A1
	.byte	$00
	.byte	$01
	.byte	$06
	.byte	$A3
	.byte	$00
	.byte	$01
	.byte	$07
	.byte	$D4
	.byte	$01
	.byte	$04
	.byte	$00
	.byte	$01
	.byte	$09
	.byte	$A5
	.byte	$00
	.byte	$01
	.byte	$06
	.byte	$A3
	.byte	$00
	.byte	$01
	.byte	$16
	.byte	$A5
	.byte	$00
	.byte	$01
	.byte	$06
	.byte	$A3
	.byte	$00
	.byte	$01
	.byte	$16
	.byte	$A5
	.byte	$00
	.byte	$01
	.byte	$06
	.byte	$A3
	.byte	$00
	.byte	$01
	.byte	$16
	.byte	$A5
	.byte	$00
	.byte	$01
	.byte	$06
	.byte	$A3
	.byte	$00
	.byte	$01
	.byte	$16
	.byte	$A5
	.byte	$00
	.byte	$01
	.byte	$06
	.byte	$A3
	.byte	$00
	.byte	$01
	.byte	$16
	.byte	$A5
	.byte	$00
	.byte	$01
	.byte	$06
	.byte	$A3
	.byte	$B0
	.byte	$B1
	.byte	$00
	.byte	$01
	.byte	$12
	.byte	$B0
	.byte	$B1
	.byte	$A5
	.byte	$00
	.byte	$01
	.byte	$06
	.byte	$A3
	.byte	$C0
	.byte	$C1
	.byte	$00
	.byte	$01
	.byte	$12
	.byte	$C0
	.byte	$C1
	.byte	$A5
	.byte	$00
	.byte	$01
	.byte	$06
	.byte	$A6
	.byte	$A4
	.byte	$01
	.byte	$16
	.byte	$A7
	.byte	$00
	.byte	$01
	.byte	$0D
	.byte	$B9
	.byte	$01
	.byte	$02
	.byte	$00
	.byte	$01
	.byte	$05
	.byte	$B9
	.byte	$01
	.byte	$05
	.byte	$00
	.byte	$01
	.byte	$19
	.byte	$B9
	.byte	$00
	.byte	$01
	.byte	$09
	.byte	$00
	.byte	$01
	.byte	$00
_end:
	.byte	$01
	.byte	$00
	.byte	$01
	.byte	$C6
	.byte	$D7
	.byte	$01
	.byte	$05
	.byte	$00
	.byte	$01
	.byte	$18
	.byte	$54
	.byte	$68
	.byte	$61
	.byte	$6E
	.byte	$6B
	.byte	$73
	.byte	$D7
	.byte	$66
	.byte	$6F
	.byte	$72
	.byte	$E6
	.byte	$70
	.byte	$6C
	.byte	$61
	.byte	$79
	.byte	$69
	.byte	$6E
	.byte	$67
	.byte	$21
	.byte	$D6
	.byte	$01
	.byte	$02
	.byte	$00
	.byte	$01
	.byte	$10
	.byte	$D7
	.byte	$01
	.byte	$04
	.byte	$E5
	.byte	$00
	.byte	$01
	.byte	$FE
	.byte	$00
	.byte	$01
	.byte	$FE
	.byte	$00
	.byte	$01
	.byte	$AD
	.byte	$00
	.byte	$01
	.byte	$00
_LEVELS:
	.addr	_level1
	.addr	_level2
	.addr	_level3
	.addr	_level4
	.addr	_level5
_c_map1:
	.byte	$01
	.byte	$01
	.byte	$01
	.byte	$01
	.byte	$01
	.byte	$01
	.byte	$01
	.byte	$01
	.byte	$01
	.byte	$01
	.byte	$01
	.byte	$01
	.byte	$01
	.byte	$01
	.byte	$01
	.byte	$01
	.byte	$01
	.byte	$01
	.byte	$01
	.byte	$01
	.byte	$01
	.byte	$01
	.byte	$01
	.byte	$01
	.byte	$01
	.byte	$01
	.byte	$01
	.byte	$01
	.byte	$01
	.byte	$01
	.byte	$01
	.byte	$01
	.byte	$01
	.byte	$01
	.byte	$01
	.byte	$01
	.byte	$01
	.byte	$01
	.byte	$01
	.byte	$01
	.byte	$01
	.byte	$01
	.byte	$01
	.byte	$01
	.byte	$01
	.byte	$01
	.byte	$01
	.byte	$01
	.byte	$01
	.byte	$01
	.byte	$01
	.byte	$01
	.byte	$01
	.byte	$01
	.byte	$01
	.byte	$01
	.byte	$01
	.byte	$01
	.byte	$01
	.byte	$01
	.byte	$01
	.byte	$01
	.byte	$01
	.byte	$01
	.byte	$01
	.byte	$01
	.byte	$00
	.byte	$00
	.byte	$00
	.byte	$00
	.byte	$00
	.byte	$00
	.byte	$00
	.byte	$00
	.byte	$00
	.byte	$00
	.byte	$00
	.byte	$00
	.byte	$00
	.byte	$00
	.byte	$00
	.byte	$00
	.byte	$00
	.byte	$00
	.byte	$00
	.byte	$00
	.byte	$00
	.byte	$00
	.byte	$00
	.byte	$00
	.byte	$00
	.byte	$00
	.byte	$00
	.byte	$00
	.byte	$01
	.byte	$01
	.byte	$01
	.byte	$01
	.byte	$00
	.byte	$00
	.byte	$00
	.byte	$00
	.byte	$00
	.byte	$00
	.byte	$00
	.byte	$00
	.byte	$00
	.byte	$00
	.byte	$00
	.byte	$00
	.byte	$00
	.byte	$00
	.byte	$00
	.byte	$00
	.byte	$00
	.byte	$00
	.byte	$00
	.byte	$00
	.byte	$00
	.byte	$00
	.byte	$00
	.byte	$00
	.byte	$00
	.byte	$00
	.byte	$00
	.byte	$00
	.byte	$01
	.byte	$01
	.byte	$01
	.byte	$01
	.byte	$00
	.byte	$00
	.byte	$00
	.byte	$00
	.byte	$00
	.byte	$00
	.byte	$00
	.byte	$00
	.byte	$00
	.byte	$00
	.byte	$00
	.byte	$00
	.byte	$00
	.byte	$00
	.byte	$00
	.byte	$00
	.byte	$00
	.byte	$00
	.byte	$00
	.byte	$00
	.byte	$00
	.byte	$00
	.byte	$00
	.byte	$00
	.byte	$00
	.byte	$00
	.byte	$00
	.byte	$00
	.byte	$01
	.byte	$01
	.byte	$01
	.byte	$01
	.byte	$00
	.byte	$00
	.byte	$00
	.byte	$00
	.byte	$00
	.byte	$00
	.byte	$00
	.byte	$00
	.byte	$00
	.byte	$00
	.byte	$00
	.byte	$00
	.byte	$00
	.byte	$00
	.byte	$00
	.byte	$00
	.byte	$00
	.byte	$00
	.byte	$00
	.byte	$00
	.byte	$00
	.byte	$00
	.byte	$00
	.byte	$00
	.byte	$00
	.byte	$00
	.byte	$00
	.byte	$00
	.byte	$01
	.byte	$01
	.byte	$01
	.byte	$01
	.byte	$00
	.byte	$00
	.byte	$00
	.byte	$00
	.byte	$00
	.byte	$00
	.byte	$00
	.byte	$00
	.byte	$00
	.byte	$00
	.byte	$00
	.byte	$00
	.byte	$00
	.byte	$00
	.byte	$00
	.byte	$00
	.byte	$00
	.byte	$00
	.byte	$00
	.byte	$00
	.byte	$00
	.byte	$00
	.byte	$00
	.byte	$00
	.byte	$00
	.byte	$00
	.byte	$00
	.byte	$00
	.byte	$01
	.byte	$01
	.byte	$01
	.byte	$01
	.byte	$00
	.byte	$00
	.byte	$00
	.byte	$00
	.byte	$00
	.byte	$00
	.byte	$00
	.byte	$00
	.byte	$00
	.byte	$00
	.byte	$00
	.byte	$00
	.byte	$00
	.byte	$00
	.byte	$00
	.byte	$00
	.byte	$00
	.byte	$00
	.byte	$00
	.byte	$00
	.byte	$00
	.byte	$00
	.byte	$00
	.byte	$00
	.byte	$00
	.byte	$00
	.byte	$00
	.byte	$00
	.byte	$01
	.byte	$01
	.byte	$01
	.byte	$01
	.byte	$00
	.byte	$00
	.byte	$00
	.byte	$00
	.byte	$00
	.byte	$00
	.byte	$00
	.byte	$00
	.byte	$00
	.byte	$00
	.byte	$00
	.byte	$00
	.byte	$00
	.byte	$00
	.byte	$00
	.byte	$00
	.byte	$00
	.byte	$00
	.byte	$00
	.byte	$00
	.byte	$00
	.byte	$00
	.byte	$00
	.byte	$00
	.byte	$00
	.byte	$00
	.byte	$00
	.byte	$00
	.byte	$01
	.byte	$01
	.byte	$01
	.byte	$01
	.byte	$00
	.byte	$00
	.byte	$00
	.byte	$00
	.byte	$00
	.byte	$00
	.byte	$00
	.byte	$00
	.byte	$00
	.byte	$00
	.byte	$00
	.byte	$00
	.byte	$00
	.byte	$00
	.byte	$00
	.byte	$00
	.byte	$00
	.byte	$00
	.byte	$00
	.byte	$00
	.byte	$00
	.byte	$00
	.byte	$00
	.byte	$00
	.byte	$00
	.byte	$00
	.byte	$00
	.byte	$00
	.byte	$01
	.byte	$01
	.byte	$01
	.byte	$01
	.byte	$00
	.byte	$00
	.byte	$00
	.byte	$00
	.byte	$00
	.byte	$00
	.byte	$00
	.byte	$00
	.byte	$00
	.byte	$01
	.byte	$01
	.byte	$01
	.byte	$01
	.byte	$01
	.byte	$01
	.byte	$01
	.byte	$01
	.byte	$01
	.byte	$01
	.byte	$00
	.byte	$00
	.byte	$00
	.byte	$00
	.byte	$00
	.byte	$00
	.byte	$00
	.byte	$00
	.byte	$00
	.byte	$01
	.byte	$01
	.byte	$01
	.byte	$01
	.byte	$00
	.byte	$00
	.byte	$00
	.byte	$00
	.byte	$00
	.byte	$00
	.byte	$00
	.byte	$00
	.byte	$00
	.byte	$01
	.byte	$00
	.byte	$00
	.byte	$00
	.byte	$00
	.byte	$00
	.byte	$00
	.byte	$00
	.byte	$00
	.byte	$01
	.byte	$00
	.byte	$00
	.byte	$00
	.byte	$00
	.byte	$00
	.byte	$00
	.byte	$00
	.byte	$00
	.byte	$00
	.byte	$01
	.byte	$01
	.byte	$01
	.byte	$01
	.byte	$00
	.byte	$00
	.byte	$00
	.byte	$00
	.byte	$00
	.byte	$00
	.byte	$00
	.byte	$00
	.byte	$00
	.byte	$01
	.byte	$00
	.byte	$00
	.byte	$00
	.byte	$00
	.byte	$00
	.byte	$00
	.byte	$00
	.byte	$00
	.byte	$01
	.byte	$00
	.byte	$00
	.byte	$00
	.byte	$00
	.byte	$00
	.byte	$00
	.byte	$00
	.byte	$00
	.byte	$00
	.byte	$01
	.byte	$01
	.byte	$01
	.byte	$01
	.byte	$00
	.byte	$00
	.byte	$00
	.byte	$00
	.byte	$00
	.byte	$00
	.byte	$00
	.byte	$00
	.byte	$00
	.byte	$01
	.byte	$00
	.byte	$00
	.byte	$00
	.byte	$00
	.byte	$00
	.byte	$00
	.byte	$00
	.byte	$00
	.byte	$01
	.byte	$00
	.byte	$00
	.byte	$00
	.byte	$00
	.byte	$00
	.byte	$00
	.byte	$00
	.byte	$00
	.byte	$00
	.byte	$01
	.byte	$01
	.byte	$01
	.byte	$01
	.byte	$00
	.byte	$00
	.byte	$00
	.byte	$00
	.byte	$00
	.byte	$00
	.byte	$00
	.byte	$00
	.byte	$00
	.byte	$01
	.byte	$00
	.byte	$00
	.byte	$00
	.byte	$00
	.byte	$00
	.byte	$00
	.byte	$00
	.byte	$00
	.byte	$01
	.byte	$00
	.byte	$00
	.byte	$00
	.byte	$00
	.byte	$00
	.byte	$00
	.byte	$00
	.byte	$00
	.byte	$00
	.byte	$01
	.byte	$01
	.byte	$01
	.byte	$01
	.byte	$00
	.byte	$00
	.byte	$00
	.byte	$00
	.byte	$00
	.byte	$00
	.byte	$00
	.byte	$00
	.byte	$00
	.byte	$01
	.byte	$01
	.byte	$01
	.byte	$01
	.byte	$01
	.byte	$01
	.byte	$01
	.byte	$01
	.byte	$01
	.byte	$01
	.byte	$00
	.byte	$00
	.byte	$00
	.byte	$00
	.byte	$00
	.byte	$00
	.byte	$00
	.byte	$00
	.byte	$00
	.byte	$01
	.byte	$01
	.byte	$01
	.byte	$01
	.byte	$00
	.byte	$00
	.byte	$00
	.byte	$00
	.byte	$00
	.byte	$00
	.byte	$00
	.byte	$00
	.byte	$00
	.byte	$00
	.byte	$00
	.byte	$00
	.byte	$00
	.byte	$00
	.byte	$00
	.byte	$00
	.byte	$00
	.byte	$00
	.byte	$00
	.byte	$00
	.byte	$00
	.byte	$00
	.byte	$00
	.byte	$00
	.byte	$00
	.byte	$00
	.byte	$00
	.byte	$00
	.byte	$01
	.byte	$01
	.byte	$01
	.byte	$01
	.byte	$00
	.byte	$00
	.byte	$00
	.byte	$00
	.byte	$00
	.byte	$00
	.byte	$00
	.byte	$00
	.byte	$00
	.byte	$00
	.byte	$00
	.byte	$00
	.byte	$00
	.byte	$00
	.byte	$00
	.byte	$00
	.byte	$00
	.byte	$00
	.byte	$00
	.byte	$00
	.byte	$00
	.byte	$00
	.byte	$00
	.byte	$00
	.byte	$00
	.byte	$00
	.byte	$00
	.byte	$00
	.byte	$01
	.byte	$01
	.byte	$01
	.byte	$01
	.byte	$00
	.byte	$00
	.byte	$00
	.byte	$00
	.byte	$00
	.byte	$00
	.byte	$00
	.byte	$00
	.byte	$00
	.byte	$00
	.byte	$00
	.byte	$00
	.byte	$00
	.byte	$00
	.byte	$00
	.byte	$00
	.byte	$00
	.byte	$00
	.byte	$00
	.byte	$00
	.byte	$00
	.byte	$00
	.byte	$00
	.byte	$00
	.byte	$00
	.byte	$00
	.byte	$00
	.byte	$00
	.byte	$01
	.byte	$01
	.byte	$01
	.byte	$01
	.byte	$00
	.byte	$00
	.byte	$00
	.byte	$00
	.byte	$00
	.byte	$00
	.byte	$00
	.byte	$00
	.byte	$00
	.byte	$00
	.byte	$00
	.byte	$00
	.byte	$00
	.byte	$00
	.byte	$00
	.byte	$00
	.byte	$00
	.byte	$00
	.byte	$00
	.byte	$00
	.byte	$00
	.byte	$00
	.byte	$00
	.byte	$00
	.byte	$00
	.byte	$00
	.byte	$00
	.byte	$00
	.byte	$01
	.byte	$01
	.byte	$01
	.byte	$01
	.byte	$00
	.byte	$00
	.byte	$00
	.byte	$00
	.byte	$00
	.byte	$00
	.byte	$00
	.byte	$00
	.byte	$00
	.byte	$00
	.byte	$00
	.byte	$00
	.byte	$00
	.byte	$00
	.byte	$00
	.byte	$00
	.byte	$00
	.byte	$00
	.byte	$00
	.byte	$00
	.byte	$00
	.byte	$00
	.byte	$00
	.byte	$00
	.byte	$00
	.byte	$00
	.byte	$00
	.byte	$00
	.byte	$01
	.byte	$01
	.byte	$01
	.byte	$01
	.byte	$00
	.byte	$00
	.byte	$00
	.byte	$00
	.byte	$00
	.byte	$00
	.byte	$00
	.byte	$00
	.byte	$00
	.byte	$00
	.byte	$00
	.byte	$00
	.byte	$00
	.byte	$00
	.byte	$00
	.byte	$00
	.byte	$00
	.byte	$00
	.byte	$00
	.byte	$00
	.byte	$00
	.byte	$00
	.byte	$00
	.byte	$00
	.byte	$00
	.byte	$00
	.byte	$00
	.byte	$00
	.byte	$01
	.byte	$01
	.byte	$01
	.byte	$01
	.byte	$00
	.byte	$00
	.byte	$00
	.byte	$00
	.byte	$00
	.byte	$00
	.byte	$00
	.byte	$00
	.byte	$00
	.byte	$00
	.byte	$00
	.byte	$00
	.byte	$00
	.byte	$00
	.byte	$00
	.byte	$00
	.byte	$00
	.byte	$00
	.byte	$00
	.byte	$00
	.byte	$00
	.byte	$00
	.byte	$00
	.byte	$00
	.byte	$00
	.byte	$00
	.byte	$00
	.byte	$00
	.byte	$01
	.byte	$01
	.byte	$01
	.byte	$01
	.byte	$00
	.byte	$00
	.byte	$00
	.byte	$00
	.byte	$00
	.byte	$00
	.byte	$00
	.byte	$00
	.byte	$00
	.byte	$00
	.byte	$00
	.byte	$00
	.byte	$00
	.byte	$00
	.byte	$00
	.byte	$00
	.byte	$00
	.byte	$00
	.byte	$00
	.byte	$00
	.byte	$00
	.byte	$00
	.byte	$00
	.byte	$00
	.byte	$00
	.byte	$00
	.byte	$00
	.byte	$00
	.byte	$01
	.byte	$01
	.byte	$01
	.byte	$01
	.byte	$00
	.byte	$00
	.byte	$00
	.byte	$00
	.byte	$00
	.byte	$00
	.byte	$00
	.byte	$00
	.byte	$00
	.byte	$00
	.byte	$00
	.byte	$00
	.byte	$00
	.byte	$00
	.byte	$00
	.byte	$00
	.byte	$00
	.byte	$00
	.byte	$00
	.byte	$00
	.byte	$00
	.byte	$00
	.byte	$00
	.byte	$00
	.byte	$00
	.byte	$00
	.byte	$00
	.byte	$00
	.byte	$01
	.byte	$01
	.byte	$01
	.byte	$01
	.byte	$00
	.byte	$00
	.byte	$00
	.byte	$00
	.byte	$00
	.byte	$00
	.byte	$00
	.byte	$00
	.byte	$00
	.byte	$00
	.byte	$00
	.byte	$00
	.byte	$00
	.byte	$00
	.byte	$00
	.byte	$00
	.byte	$00
	.byte	$00
	.byte	$00
	.byte	$00
	.byte	$00
	.byte	$00
	.byte	$00
	.byte	$00
	.byte	$00
	.byte	$00
	.byte	$00
	.byte	$00
	.byte	$01
	.byte	$01
	.byte	$01
	.byte	$01
	.byte	$00
	.byte	$00
	.byte	$00
	.byte	$00
	.byte	$00
	.byte	$00
	.byte	$00
	.byte	$00
	.byte	$00
	.byte	$00
	.byte	$00
	.byte	$00
	.byte	$00
	.byte	$00
	.byte	$00
	.byte	$00
	.byte	$00
	.byte	$00
	.byte	$00
	.byte	$00
	.byte	$00
	.byte	$00
	.byte	$00
	.byte	$00
	.byte	$00
	.byte	$00
	.byte	$00
	.byte	$00
	.byte	$01
	.byte	$01
	.byte	$01
	.byte	$01
	.byte	$00
	.byte	$00
	.byte	$00
	.byte	$00
	.byte	$00
	.byte	$00
	.byte	$00
	.byte	$00
	.byte	$00
	.byte	$00
	.byte	$00
	.byte	$00
	.byte	$00
	.byte	$00
	.byte	$00
	.byte	$00
	.byte	$00
	.byte	$00
	.byte	$00
	.byte	$00
	.byte	$00
	.byte	$00
	.byte	$00
	.byte	$00
	.byte	$00
	.byte	$00
	.byte	$00
	.byte	$00
	.byte	$01
	.byte	$01
	.byte	$01
	.byte	$01
	.byte	$01
	.byte	$01
	.byte	$01
	.byte	$01
	.byte	$01
	.byte	$01
	.byte	$01
	.byte	$01
	.byte	$01
	.byte	$01
	.byte	$01
	.byte	$01
	.byte	$01
	.byte	$01
	.byte	$01
	.byte	$01
	.byte	$01
	.byte	$01
	.byte	$01
	.byte	$01
	.byte	$01
	.byte	$01
	.byte	$01
	.byte	$01
	.byte	$01
	.byte	$01
	.byte	$01
	.byte	$01
	.byte	$01
	.byte	$01
	.byte	$01
	.byte	$01
	.byte	$01
	.byte	$01
	.byte	$01
	.byte	$01
	.byte	$01
	.byte	$01
	.byte	$01
	.byte	$01
	.byte	$01
	.byte	$01
	.byte	$01
	.byte	$01
	.byte	$01
	.byte	$01
	.byte	$01
	.byte	$01
	.byte	$01
	.byte	$01
	.byte	$01
	.byte	$01
	.byte	$01
	.byte	$01
	.byte	$01
	.byte	$01
	.byte	$01
	.byte	$01
	.byte	$01
	.byte	$01
	.byte	$01
	.byte	$01
_c_map2:
	.byte	$01
	.byte	$01
	.byte	$01
	.byte	$01
	.byte	$01
	.byte	$01
	.byte	$01
	.byte	$01
	.byte	$01
	.byte	$01
	.byte	$01
	.byte	$01
	.byte	$01
	.byte	$01
	.byte	$01
	.byte	$01
	.byte	$01
	.byte	$01
	.byte	$01
	.byte	$01
	.byte	$01
	.byte	$01
	.byte	$01
	.byte	$01
	.byte	$01
	.byte	$01
	.byte	$01
	.byte	$01
	.byte	$01
	.byte	$01
	.byte	$01
	.byte	$01
	.byte	$01
	.byte	$01
	.byte	$01
	.byte	$01
	.byte	$01
	.byte	$01
	.byte	$01
	.byte	$01
	.byte	$01
	.byte	$01
	.byte	$01
	.byte	$01
	.byte	$01
	.byte	$01
	.byte	$01
	.byte	$01
	.byte	$01
	.byte	$01
	.byte	$01
	.byte	$01
	.byte	$01
	.byte	$01
	.byte	$01
	.byte	$01
	.byte	$01
	.byte	$01
	.byte	$01
	.byte	$01
	.byte	$01
	.byte	$01
	.byte	$01
	.byte	$01
	.byte	$01
	.byte	$01
	.byte	$00
	.byte	$00
	.byte	$00
	.byte	$00
	.byte	$00
	.byte	$00
	.byte	$00
	.byte	$00
	.byte	$00
	.byte	$00
	.byte	$00
	.byte	$00
	.byte	$00
	.byte	$00
	.byte	$00
	.byte	$00
	.byte	$00
	.byte	$00
	.byte	$00
	.byte	$00
	.byte	$00
	.byte	$00
	.byte	$00
	.byte	$00
	.byte	$00
	.byte	$00
	.byte	$00
	.byte	$00
	.byte	$01
	.byte	$01
	.byte	$01
	.byte	$01
	.byte	$00
	.byte	$00
	.byte	$00
	.byte	$00
	.byte	$00
	.byte	$00
	.byte	$00
	.byte	$00
	.byte	$00
	.byte	$00
	.byte	$00
	.byte	$00
	.byte	$00
	.byte	$00
	.byte	$00
	.byte	$00
	.byte	$00
	.byte	$00
	.byte	$00
	.byte	$00
	.byte	$00
	.byte	$00
	.byte	$00
	.byte	$00
	.byte	$00
	.byte	$00
	.byte	$00
	.byte	$00
	.byte	$01
	.byte	$01
	.byte	$01
	.byte	$01
	.byte	$00
	.byte	$00
	.byte	$00
	.byte	$00
	.byte	$00
	.byte	$00
	.byte	$00
	.byte	$00
	.byte	$00
	.byte	$00
	.byte	$00
	.byte	$00
	.byte	$00
	.byte	$00
	.byte	$00
	.byte	$00
	.byte	$00
	.byte	$00
	.byte	$00
	.byte	$00
	.byte	$00
	.byte	$00
	.byte	$00
	.byte	$00
	.byte	$00
	.byte	$00
	.byte	$00
	.byte	$00
	.byte	$01
	.byte	$01
	.byte	$01
	.byte	$01
	.byte	$00
	.byte	$00
	.byte	$00
	.byte	$00
	.byte	$00
	.byte	$00
	.byte	$00
	.byte	$00
	.byte	$00
	.byte	$00
	.byte	$00
	.byte	$00
	.byte	$00
	.byte	$00
	.byte	$00
	.byte	$00
	.byte	$00
	.byte	$00
	.byte	$00
	.byte	$00
	.byte	$00
	.byte	$00
	.byte	$00
	.byte	$00
	.byte	$00
	.byte	$00
	.byte	$00
	.byte	$00
	.byte	$01
	.byte	$01
	.byte	$01
	.byte	$01
	.byte	$00
	.byte	$00
	.byte	$00
	.byte	$00
	.byte	$00
	.byte	$00
	.byte	$00
	.byte	$00
	.byte	$00
	.byte	$00
	.byte	$00
	.byte	$00
	.byte	$00
	.byte	$00
	.byte	$01
	.byte	$01
	.byte	$01
	.byte	$01
	.byte	$01
	.byte	$01
	.byte	$01
	.byte	$01
	.byte	$01
	.byte	$01
	.byte	$01
	.byte	$01
	.byte	$00
	.byte	$00
	.byte	$01
	.byte	$01
	.byte	$01
	.byte	$01
	.byte	$00
	.byte	$00
	.byte	$00
	.byte	$01
	.byte	$01
	.byte	$01
	.byte	$01
	.byte	$01
	.byte	$01
	.byte	$01
	.byte	$01
	.byte	$01
	.byte	$01
	.byte	$01
	.byte	$01
	.byte	$00
	.byte	$00
	.byte	$00
	.byte	$00
	.byte	$00
	.byte	$00
	.byte	$00
	.byte	$00
	.byte	$00
	.byte	$00
	.byte	$01
	.byte	$00
	.byte	$00
	.byte	$01
	.byte	$01
	.byte	$01
	.byte	$01
	.byte	$00
	.byte	$00
	.byte	$00
	.byte	$01
	.byte	$00
	.byte	$00
	.byte	$00
	.byte	$00
	.byte	$00
	.byte	$00
	.byte	$00
	.byte	$00
	.byte	$00
	.byte	$00
	.byte	$00
	.byte	$00
	.byte	$00
	.byte	$00
	.byte	$00
	.byte	$00
	.byte	$00
	.byte	$00
	.byte	$00
	.byte	$00
	.byte	$00
	.byte	$01
	.byte	$00
	.byte	$00
	.byte	$01
	.byte	$01
	.byte	$01
	.byte	$01
	.byte	$00
	.byte	$00
	.byte	$00
	.byte	$01
	.byte	$00
	.byte	$00
	.byte	$00
	.byte	$00
	.byte	$00
	.byte	$00
	.byte	$00
	.byte	$00
	.byte	$00
	.byte	$00
	.byte	$00
	.byte	$00
	.byte	$00
	.byte	$00
	.byte	$00
	.byte	$00
	.byte	$00
	.byte	$01
	.byte	$01
	.byte	$01
	.byte	$01
	.byte	$01
	.byte	$00
	.byte	$00
	.byte	$01
	.byte	$01
	.byte	$01
	.byte	$01
	.byte	$00
	.byte	$00
	.byte	$00
	.byte	$01
	.byte	$01
	.byte	$00
	.byte	$00
	.byte	$01
	.byte	$01
	.byte	$00
	.byte	$00
	.byte	$01
	.byte	$01
	.byte	$00
	.byte	$00
	.byte	$01
	.byte	$01
	.byte	$01
	.byte	$01
	.byte	$00
	.byte	$00
	.byte	$01
	.byte	$01
	.byte	$00
	.byte	$00
	.byte	$01
	.byte	$00
	.byte	$00
	.byte	$01
	.byte	$01
	.byte	$01
	.byte	$01
	.byte	$00
	.byte	$00
	.byte	$00
	.byte	$00
	.byte	$01
	.byte	$00
	.byte	$00
	.byte	$01
	.byte	$01
	.byte	$00
	.byte	$00
	.byte	$01
	.byte	$01
	.byte	$00
	.byte	$00
	.byte	$01
	.byte	$01
	.byte	$01
	.byte	$01
	.byte	$00
	.byte	$00
	.byte	$00
	.byte	$00
	.byte	$00
	.byte	$00
	.byte	$00
	.byte	$01
	.byte	$00
	.byte	$01
	.byte	$01
	.byte	$01
	.byte	$01
	.byte	$00
	.byte	$00
	.byte	$00
	.byte	$00
	.byte	$01
	.byte	$00
	.byte	$00
	.byte	$00
	.byte	$00
	.byte	$00
	.byte	$00
	.byte	$00
	.byte	$00
	.byte	$00
	.byte	$00
	.byte	$01
	.byte	$00
	.byte	$00
	.byte	$00
	.byte	$00
	.byte	$00
	.byte	$00
	.byte	$00
	.byte	$00
	.byte	$00
	.byte	$00
	.byte	$01
	.byte	$00
	.byte	$01
	.byte	$01
	.byte	$01
	.byte	$01
	.byte	$00
	.byte	$00
	.byte	$00
	.byte	$00
	.byte	$01
	.byte	$00
	.byte	$00
	.byte	$00
	.byte	$00
	.byte	$00
	.byte	$00
	.byte	$00
	.byte	$00
	.byte	$00
	.byte	$00
	.byte	$01
	.byte	$00
	.byte	$00
	.byte	$00
	.byte	$00
	.byte	$00
	.byte	$00
	.byte	$00
	.byte	$00
	.byte	$00
	.byte	$00
	.byte	$01
	.byte	$00
	.byte	$01
	.byte	$01
	.byte	$01
	.byte	$01
	.byte	$00
	.byte	$00
	.byte	$00
	.byte	$00
	.byte	$01
	.byte	$01
	.byte	$01
	.byte	$00
	.byte	$00
	.byte	$01
	.byte	$01
	.byte	$01
	.byte	$00
	.byte	$00
	.byte	$01
	.byte	$01
	.byte	$00
	.byte	$00
	.byte	$01
	.byte	$01
	.byte	$00
	.byte	$00
	.byte	$01
	.byte	$01
	.byte	$00
	.byte	$00
	.byte	$01
	.byte	$00
	.byte	$01
	.byte	$01
	.byte	$01
	.byte	$01
	.byte	$00
	.byte	$00
	.byte	$00
	.byte	$00
	.byte	$01
	.byte	$01
	.byte	$01
	.byte	$00
	.byte	$00
	.byte	$01
	.byte	$01
	.byte	$01
	.byte	$00
	.byte	$00
	.byte	$01
	.byte	$01
	.byte	$00
	.byte	$00
	.byte	$01
	.byte	$01
	.byte	$01
	.byte	$01
	.byte	$01
	.byte	$01
	.byte	$00
	.byte	$00
	.byte	$01
	.byte	$00
	.byte	$01
	.byte	$01
	.byte	$01
	.byte	$01
	.byte	$00
	.byte	$00
	.byte	$00
	.byte	$00
	.byte	$01
	.byte	$00
	.byte	$00
	.byte	$00
	.byte	$00
	.byte	$00
	.byte	$00
	.byte	$00
	.byte	$00
	.byte	$00
	.byte	$00
	.byte	$00
	.byte	$00
	.byte	$00
	.byte	$01
	.byte	$01
	.byte	$00
	.byte	$00
	.byte	$00
	.byte	$00
	.byte	$00
	.byte	$00
	.byte	$01
	.byte	$00
	.byte	$01
	.byte	$01
	.byte	$01
	.byte	$01
	.byte	$00
	.byte	$00
	.byte	$00
	.byte	$00
	.byte	$01
	.byte	$00
	.byte	$00
	.byte	$00
	.byte	$00
	.byte	$00
	.byte	$00
	.byte	$00
	.byte	$00
	.byte	$00
	.byte	$00
	.byte	$00
	.byte	$00
	.byte	$00
	.byte	$01
	.byte	$00
	.byte	$00
	.byte	$00
	.byte	$00
	.byte	$00
	.byte	$00
	.byte	$00
	.byte	$01
	.byte	$00
	.byte	$01
	.byte	$01
	.byte	$01
	.byte	$01
	.byte	$00
	.byte	$00
	.byte	$00
	.byte	$00
	.byte	$01
	.byte	$00
	.byte	$00
	.byte	$01
	.byte	$01
	.byte	$00
	.byte	$00
	.byte	$01
	.byte	$01
	.byte	$01
	.byte	$00
	.byte	$00
	.byte	$00
	.byte	$00
	.byte	$01
	.byte	$00
	.byte	$00
	.byte	$00
	.byte	$00
	.byte	$00
	.byte	$00
	.byte	$00
	.byte	$01
	.byte	$00
	.byte	$01
	.byte	$01
	.byte	$01
	.byte	$01
	.byte	$00
	.byte	$00
	.byte	$00
	.byte	$00
	.byte	$01
	.byte	$00
	.byte	$00
	.byte	$01
	.byte	$01
	.byte	$00
	.byte	$00
	.byte	$01
	.byte	$01
	.byte	$01
	.byte	$00
	.byte	$00
	.byte	$01
	.byte	$01
	.byte	$01
	.byte	$00
	.byte	$00
	.byte	$01
	.byte	$01
	.byte	$01
	.byte	$00
	.byte	$00
	.byte	$01
	.byte	$00
	.byte	$01
	.byte	$01
	.byte	$01
	.byte	$01
	.byte	$00
	.byte	$00
	.byte	$00
	.byte	$00
	.byte	$01
	.byte	$00
	.byte	$00
	.byte	$01
	.byte	$01
	.byte	$00
	.byte	$00
	.byte	$01
	.byte	$01
	.byte	$01
	.byte	$01
	.byte	$01
	.byte	$01
	.byte	$01
	.byte	$01
	.byte	$00
	.byte	$00
	.byte	$01
	.byte	$01
	.byte	$01
	.byte	$00
	.byte	$00
	.byte	$01
	.byte	$00
	.byte	$01
	.byte	$01
	.byte	$01
	.byte	$01
	.byte	$00
	.byte	$00
	.byte	$00
	.byte	$00
	.byte	$01
	.byte	$00
	.byte	$00
	.byte	$00
	.byte	$00
	.byte	$00
	.byte	$00
	.byte	$00
	.byte	$00
	.byte	$00
	.byte	$01
	.byte	$00
	.byte	$00
	.byte	$00
	.byte	$00
	.byte	$00
	.byte	$00
	.byte	$00
	.byte	$00
	.byte	$00
	.byte	$00
	.byte	$00
	.byte	$01
	.byte	$00
	.byte	$01
	.byte	$01
	.byte	$01
	.byte	$01
	.byte	$00
	.byte	$00
	.byte	$00
	.byte	$00
	.byte	$01
	.byte	$00
	.byte	$00
	.byte	$00
	.byte	$00
	.byte	$00
	.byte	$00
	.byte	$00
	.byte	$00
	.byte	$00
	.byte	$01
	.byte	$00
	.byte	$00
	.byte	$00
	.byte	$00
	.byte	$00
	.byte	$00
	.byte	$00
	.byte	$00
	.byte	$00
	.byte	$00
	.byte	$00
	.byte	$01
	.byte	$00
	.byte	$01
	.byte	$01
	.byte	$01
	.byte	$01
	.byte	$00
	.byte	$00
	.byte	$00
	.byte	$00
	.byte	$01
	.byte	$01
	.byte	$01
	.byte	$01
	.byte	$01
	.byte	$01
	.byte	$01
	.byte	$01
	.byte	$01
	.byte	$01
	.byte	$01
	.byte	$00
	.byte	$00
	.byte	$01
	.byte	$01
	.byte	$01
	.byte	$01
	.byte	$01
	.byte	$01
	.byte	$01
	.byte	$01
	.byte	$01
	.byte	$01
	.byte	$00
	.byte	$01
	.byte	$01
	.byte	$01
	.byte	$01
	.byte	$00
	.byte	$00
	.byte	$00
	.byte	$00
	.byte	$00
	.byte	$00
	.byte	$00
	.byte	$00
	.byte	$00
	.byte	$00
	.byte	$00
	.byte	$00
	.byte	$00
	.byte	$00
	.byte	$01
	.byte	$00
	.byte	$00
	.byte	$01
	.byte	$00
	.byte	$00
	.byte	$00
	.byte	$00
	.byte	$00
	.byte	$00
	.byte	$00
	.byte	$00
	.byte	$00
	.byte	$00
	.byte	$01
	.byte	$01
	.byte	$01
	.byte	$01
	.byte	$00
	.byte	$00
	.byte	$00
	.byte	$00
	.byte	$00
	.byte	$00
	.byte	$00
	.byte	$00
	.byte	$00
	.byte	$00
	.byte	$00
	.byte	$00
	.byte	$00
	.byte	$00
	.byte	$01
	.byte	$01
	.byte	$01
	.byte	$01
	.byte	$00
	.byte	$00
	.byte	$00
	.byte	$00
	.byte	$00
	.byte	$00
	.byte	$00
	.byte	$00
	.byte	$00
	.byte	$00
	.byte	$01
	.byte	$01
	.byte	$01
	.byte	$01
	.byte	$00
	.byte	$00
	.byte	$00
	.byte	$00
	.byte	$00
	.byte	$00
	.byte	$00
	.byte	$00
	.byte	$00
	.byte	$00
	.byte	$00
	.byte	$00
	.byte	$00
	.byte	$00
	.byte	$00
	.byte	$00
	.byte	$00
	.byte	$00
	.byte	$00
	.byte	$00
	.byte	$00
	.byte	$00
	.byte	$00
	.byte	$00
	.byte	$00
	.byte	$00
	.byte	$00
	.byte	$00
	.byte	$01
	.byte	$01
	.byte	$01
	.byte	$01
	.byte	$01
	.byte	$01
	.byte	$01
	.byte	$01
	.byte	$01
	.byte	$01
	.byte	$01
	.byte	$01
	.byte	$01
	.byte	$01
	.byte	$01
	.byte	$01
	.byte	$01
	.byte	$01
	.byte	$01
	.byte	$01
	.byte	$01
	.byte	$01
	.byte	$01
	.byte	$01
	.byte	$01
	.byte	$01
	.byte	$01
	.byte	$01
	.byte	$01
	.byte	$01
	.byte	$01
	.byte	$01
	.byte	$01
	.byte	$01
	.byte	$01
	.byte	$01
	.byte	$01
	.byte	$01
	.byte	$01
	.byte	$01
	.byte	$01
	.byte	$01
	.byte	$01
	.byte	$01
	.byte	$01
	.byte	$01
	.byte	$01
	.byte	$01
	.byte	$01
	.byte	$01
	.byte	$01
	.byte	$01
	.byte	$01
	.byte	$01
	.byte	$01
	.byte	$01
	.byte	$01
	.byte	$01
	.byte	$01
	.byte	$01
	.byte	$01
	.byte	$01
	.byte	$01
	.byte	$01
	.byte	$01
	.byte	$01
	.byte	$01
	.byte	$01
	.byte	$01
	.byte	$01
	.byte	$01
	.byte	$01
	.byte	$01
	.byte	$01
	.byte	$01
	.byte	$01
	.byte	$01
	.byte	$01
	.byte	$01
	.byte	$01
	.byte	$01
	.byte	$01
	.byte	$01
	.byte	$01
	.byte	$01
	.byte	$01
	.byte	$01
	.byte	$01
	.byte	$01
	.byte	$01
	.byte	$01
	.byte	$01
	.byte	$01
	.byte	$01
	.byte	$01
	.byte	$01
	.byte	$01
	.byte	$01
_c_map3:
	.byte	$01
	.byte	$01
	.byte	$01
	.byte	$01
	.byte	$01
	.byte	$01
	.byte	$01
	.byte	$01
	.byte	$01
	.byte	$01
	.byte	$01
	.byte	$01
	.byte	$01
	.byte	$01
	.byte	$01
	.byte	$01
	.byte	$01
	.byte	$01
	.byte	$01
	.byte	$01
	.byte	$01
	.byte	$01
	.byte	$01
	.byte	$01
	.byte	$01
	.byte	$01
	.byte	$01
	.byte	$01
	.byte	$01
	.byte	$01
	.byte	$01
	.byte	$01
	.byte	$01
	.byte	$01
	.byte	$01
	.byte	$01
	.byte	$01
	.byte	$01
	.byte	$01
	.byte	$01
	.byte	$01
	.byte	$01
	.byte	$01
	.byte	$01
	.byte	$01
	.byte	$01
	.byte	$01
	.byte	$01
	.byte	$01
	.byte	$01
	.byte	$01
	.byte	$01
	.byte	$01
	.byte	$01
	.byte	$01
	.byte	$01
	.byte	$01
	.byte	$01
	.byte	$01
	.byte	$01
	.byte	$01
	.byte	$01
	.byte	$01
	.byte	$01
	.byte	$01
	.byte	$01
	.byte	$00
	.byte	$00
	.byte	$00
	.byte	$00
	.byte	$00
	.byte	$00
	.byte	$00
	.byte	$00
	.byte	$00
	.byte	$00
	.byte	$00
	.byte	$00
	.byte	$00
	.byte	$00
	.byte	$00
	.byte	$00
	.byte	$00
	.byte	$00
	.byte	$00
	.byte	$00
	.byte	$00
	.byte	$00
	.byte	$00
	.byte	$00
	.byte	$00
	.byte	$00
	.byte	$00
	.byte	$00
	.byte	$01
	.byte	$01
	.byte	$01
	.byte	$01
	.byte	$00
	.byte	$00
	.byte	$00
	.byte	$00
	.byte	$00
	.byte	$00
	.byte	$00
	.byte	$00
	.byte	$00
	.byte	$00
	.byte	$00
	.byte	$00
	.byte	$00
	.byte	$00
	.byte	$00
	.byte	$00
	.byte	$00
	.byte	$00
	.byte	$00
	.byte	$00
	.byte	$00
	.byte	$00
	.byte	$00
	.byte	$00
	.byte	$00
	.byte	$00
	.byte	$00
	.byte	$00
	.byte	$01
	.byte	$01
	.byte	$01
	.byte	$01
	.byte	$00
	.byte	$00
	.byte	$00
	.byte	$00
	.byte	$00
	.byte	$00
	.byte	$00
	.byte	$00
	.byte	$00
	.byte	$00
	.byte	$00
	.byte	$00
	.byte	$00
	.byte	$00
	.byte	$00
	.byte	$00
	.byte	$00
	.byte	$00
	.byte	$00
	.byte	$00
	.byte	$00
	.byte	$00
	.byte	$00
	.byte	$00
	.byte	$00
	.byte	$00
	.byte	$00
	.byte	$00
	.byte	$01
	.byte	$01
	.byte	$01
	.byte	$01
	.byte	$00
	.byte	$00
	.byte	$00
	.byte	$00
	.byte	$00
	.byte	$00
	.byte	$00
	.byte	$00
	.byte	$00
	.byte	$00
	.byte	$00
	.byte	$00
	.byte	$00
	.byte	$00
	.byte	$00
	.byte	$00
	.byte	$00
	.byte	$00
	.byte	$00
	.byte	$00
	.byte	$00
	.byte	$00
	.byte	$00
	.byte	$00
	.byte	$00
	.byte	$00
	.byte	$00
	.byte	$00
	.byte	$01
	.byte	$01
	.byte	$01
	.byte	$01
	.byte	$00
	.byte	$00
	.byte	$00
	.byte	$00
	.byte	$00
	.byte	$00
	.byte	$00
	.byte	$00
	.byte	$00
	.byte	$00
	.byte	$00
	.byte	$00
	.byte	$00
	.byte	$00
	.byte	$00
	.byte	$00
	.byte	$00
	.byte	$00
	.byte	$00
	.byte	$00
	.byte	$00
	.byte	$00
	.byte	$00
	.byte	$00
	.byte	$00
	.byte	$00
	.byte	$00
	.byte	$00
	.byte	$01
	.byte	$01
	.byte	$01
	.byte	$01
	.byte	$00
	.byte	$00
	.byte	$00
	.byte	$01
	.byte	$01
	.byte	$01
	.byte	$01
	.byte	$01
	.byte	$01
	.byte	$01
	.byte	$01
	.byte	$01
	.byte	$01
	.byte	$01
	.byte	$01
	.byte	$01
	.byte	$01
	.byte	$01
	.byte	$01
	.byte	$01
	.byte	$01
	.byte	$01
	.byte	$01
	.byte	$01
	.byte	$00
	.byte	$00
	.byte	$00
	.byte	$00
	.byte	$01
	.byte	$01
	.byte	$01
	.byte	$01
	.byte	$00
	.byte	$00
	.byte	$00
	.byte	$01
	.byte	$00
	.byte	$00
	.byte	$00
	.byte	$00
	.byte	$00
	.byte	$00
	.byte	$00
	.byte	$00
	.byte	$00
	.byte	$00
	.byte	$00
	.byte	$00
	.byte	$00
	.byte	$00
	.byte	$00
	.byte	$00
	.byte	$00
	.byte	$00
	.byte	$00
	.byte	$01
	.byte	$00
	.byte	$00
	.byte	$00
	.byte	$00
	.byte	$01
	.byte	$01
	.byte	$01
	.byte	$01
	.byte	$00
	.byte	$00
	.byte	$00
	.byte	$01
	.byte	$00
	.byte	$00
	.byte	$00
	.byte	$00
	.byte	$00
	.byte	$00
	.byte	$00
	.byte	$00
	.byte	$00
	.byte	$00
	.byte	$00
	.byte	$00
	.byte	$00
	.byte	$00
	.byte	$00
	.byte	$00
	.byte	$00
	.byte	$00
	.byte	$00
	.byte	$01
	.byte	$00
	.byte	$00
	.byte	$00
	.byte	$00
	.byte	$01
	.byte	$01
	.byte	$01
	.byte	$01
	.byte	$00
	.byte	$00
	.byte	$00
	.byte	$01
	.byte	$00
	.byte	$00
	.byte	$00
	.byte	$00
	.byte	$00
	.byte	$00
	.byte	$00
	.byte	$00
	.byte	$00
	.byte	$00
	.byte	$00
	.byte	$00
	.byte	$00
	.byte	$00
	.byte	$00
	.byte	$00
	.byte	$00
	.byte	$00
	.byte	$00
	.byte	$01
	.byte	$00
	.byte	$00
	.byte	$00
	.byte	$00
	.byte	$01
	.byte	$01
	.byte	$01
	.byte	$01
	.byte	$00
	.byte	$00
	.byte	$00
	.byte	$01
	.byte	$00
	.byte	$00
	.byte	$00
	.byte	$00
	.byte	$00
	.byte	$00
	.byte	$00
	.byte	$00
	.byte	$00
	.byte	$00
	.byte	$00
	.byte	$00
	.byte	$00
	.byte	$00
	.byte	$00
	.byte	$00
	.byte	$00
	.byte	$00
	.byte	$00
	.byte	$01
	.byte	$00
	.byte	$00
	.byte	$00
	.byte	$00
	.byte	$01
	.byte	$01
	.byte	$01
	.byte	$01
	.byte	$00
	.byte	$00
	.byte	$00
	.byte	$01
	.byte	$00
	.byte	$00
	.byte	$00
	.byte	$00
	.byte	$00
	.byte	$00
	.byte	$00
	.byte	$00
	.byte	$00
	.byte	$00
	.byte	$00
	.byte	$00
	.byte	$00
	.byte	$00
	.byte	$00
	.byte	$00
	.byte	$00
	.byte	$00
	.byte	$00
	.byte	$01
	.byte	$00
	.byte	$00
	.byte	$00
	.byte	$00
	.byte	$01
	.byte	$01
	.byte	$01
	.byte	$01
	.byte	$00
	.byte	$00
	.byte	$00
	.byte	$01
	.byte	$00
	.byte	$00
	.byte	$00
	.byte	$00
	.byte	$00
	.byte	$00
	.byte	$00
	.byte	$00
	.byte	$00
	.byte	$00
	.byte	$00
	.byte	$00
	.byte	$00
	.byte	$00
	.byte	$00
	.byte	$00
	.byte	$00
	.byte	$00
	.byte	$00
	.byte	$01
	.byte	$00
	.byte	$00
	.byte	$00
	.byte	$00
	.byte	$01
	.byte	$01
	.byte	$01
	.byte	$01
	.byte	$00
	.byte	$00
	.byte	$00
	.byte	$01
	.byte	$00
	.byte	$00
	.byte	$00
	.byte	$00
	.byte	$00
	.byte	$00
	.byte	$00
	.byte	$00
	.byte	$00
	.byte	$00
	.byte	$00
	.byte	$00
	.byte	$00
	.byte	$00
	.byte	$00
	.byte	$00
	.byte	$00
	.byte	$00
	.byte	$00
	.byte	$01
	.byte	$00
	.byte	$00
	.byte	$00
	.byte	$00
	.byte	$01
	.byte	$01
	.byte	$01
	.byte	$01
	.byte	$00
	.byte	$00
	.byte	$00
	.byte	$01
	.byte	$01
	.byte	$01
	.byte	$01
	.byte	$01
	.byte	$01
	.byte	$01
	.byte	$01
	.byte	$01
	.byte	$01
	.byte	$01
	.byte	$01
	.byte	$01
	.byte	$01
	.byte	$01
	.byte	$01
	.byte	$01
	.byte	$01
	.byte	$01
	.byte	$01
	.byte	$01
	.byte	$00
	.byte	$00
	.byte	$00
	.byte	$00
	.byte	$01
	.byte	$01
	.byte	$01
	.byte	$01
	.byte	$00
	.byte	$00
	.byte	$00
	.byte	$00
	.byte	$00
	.byte	$00
	.byte	$00
	.byte	$00
	.byte	$00
	.byte	$00
	.byte	$00
	.byte	$00
	.byte	$00
	.byte	$00
	.byte	$00
	.byte	$00
	.byte	$00
	.byte	$00
	.byte	$00
	.byte	$00
	.byte	$00
	.byte	$00
	.byte	$00
	.byte	$00
	.byte	$00
	.byte	$00
	.byte	$00
	.byte	$00
	.byte	$01
	.byte	$01
	.byte	$01
	.byte	$01
	.byte	$00
	.byte	$00
	.byte	$00
	.byte	$00
	.byte	$00
	.byte	$00
	.byte	$00
	.byte	$00
	.byte	$00
	.byte	$00
	.byte	$00
	.byte	$00
	.byte	$00
	.byte	$00
	.byte	$00
	.byte	$00
	.byte	$00
	.byte	$00
	.byte	$00
	.byte	$00
	.byte	$00
	.byte	$00
	.byte	$00
	.byte	$00
	.byte	$00
	.byte	$00
	.byte	$00
	.byte	$00
	.byte	$01
	.byte	$01
	.byte	$01
	.byte	$01
	.byte	$00
	.byte	$00
	.byte	$00
	.byte	$00
	.byte	$00
	.byte	$00
	.byte	$00
	.byte	$00
	.byte	$00
	.byte	$00
	.byte	$00
	.byte	$00
	.byte	$00
	.byte	$00
	.byte	$00
	.byte	$00
	.byte	$00
	.byte	$00
	.byte	$00
	.byte	$00
	.byte	$00
	.byte	$00
	.byte	$00
	.byte	$00
	.byte	$00
	.byte	$00
	.byte	$00
	.byte	$00
	.byte	$01
	.byte	$01
	.byte	$01
	.byte	$01
	.byte	$00
	.byte	$00
	.byte	$00
	.byte	$00
	.byte	$00
	.byte	$00
	.byte	$00
	.byte	$00
	.byte	$00
	.byte	$00
	.byte	$00
	.byte	$00
	.byte	$00
	.byte	$00
	.byte	$00
	.byte	$00
	.byte	$00
	.byte	$00
	.byte	$00
	.byte	$00
	.byte	$00
	.byte	$00
	.byte	$00
	.byte	$00
	.byte	$00
	.byte	$00
	.byte	$00
	.byte	$00
	.byte	$01
	.byte	$01
	.byte	$01
	.byte	$01
	.byte	$00
	.byte	$00
	.byte	$00
	.byte	$00
	.byte	$00
	.byte	$00
	.byte	$00
	.byte	$00
	.byte	$00
	.byte	$00
	.byte	$00
	.byte	$00
	.byte	$00
	.byte	$00
	.byte	$00
	.byte	$00
	.byte	$00
	.byte	$00
	.byte	$00
	.byte	$00
	.byte	$00
	.byte	$00
	.byte	$00
	.byte	$00
	.byte	$00
	.byte	$00
	.byte	$00
	.byte	$00
	.byte	$01
	.byte	$01
	.byte	$01
	.byte	$01
	.byte	$00
	.byte	$00
	.byte	$00
	.byte	$00
	.byte	$00
	.byte	$00
	.byte	$00
	.byte	$00
	.byte	$00
	.byte	$00
	.byte	$00
	.byte	$00
	.byte	$00
	.byte	$00
	.byte	$00
	.byte	$00
	.byte	$00
	.byte	$00
	.byte	$00
	.byte	$00
	.byte	$00
	.byte	$00
	.byte	$00
	.byte	$00
	.byte	$00
	.byte	$00
	.byte	$00
	.byte	$00
	.byte	$01
	.byte	$01
	.byte	$01
	.byte	$01
	.byte	$00
	.byte	$00
	.byte	$00
	.byte	$00
	.byte	$00
	.byte	$00
	.byte	$00
	.byte	$00
	.byte	$00
	.byte	$00
	.byte	$00
	.byte	$00
	.byte	$00
	.byte	$00
	.byte	$00
	.byte	$00
	.byte	$00
	.byte	$00
	.byte	$00
	.byte	$00
	.byte	$00
	.byte	$00
	.byte	$00
	.byte	$00
	.byte	$00
	.byte	$00
	.byte	$00
	.byte	$00
	.byte	$01
	.byte	$01
	.byte	$01
	.byte	$01
	.byte	$00
	.byte	$00
	.byte	$00
	.byte	$00
	.byte	$00
	.byte	$00
	.byte	$00
	.byte	$00
	.byte	$00
	.byte	$00
	.byte	$00
	.byte	$00
	.byte	$00
	.byte	$00
	.byte	$00
	.byte	$00
	.byte	$00
	.byte	$00
	.byte	$00
	.byte	$00
	.byte	$00
	.byte	$00
	.byte	$00
	.byte	$00
	.byte	$00
	.byte	$00
	.byte	$00
	.byte	$00
	.byte	$01
	.byte	$01
	.byte	$01
	.byte	$01
	.byte	$00
	.byte	$00
	.byte	$00
	.byte	$00
	.byte	$00
	.byte	$00
	.byte	$00
	.byte	$00
	.byte	$00
	.byte	$00
	.byte	$00
	.byte	$00
	.byte	$00
	.byte	$00
	.byte	$00
	.byte	$00
	.byte	$00
	.byte	$00
	.byte	$00
	.byte	$00
	.byte	$00
	.byte	$00
	.byte	$00
	.byte	$00
	.byte	$00
	.byte	$00
	.byte	$00
	.byte	$00
	.byte	$01
	.byte	$01
	.byte	$01
	.byte	$01
	.byte	$00
	.byte	$00
	.byte	$00
	.byte	$00
	.byte	$00
	.byte	$00
	.byte	$00
	.byte	$00
	.byte	$00
	.byte	$00
	.byte	$00
	.byte	$00
	.byte	$00
	.byte	$00
	.byte	$00
	.byte	$00
	.byte	$00
	.byte	$00
	.byte	$00
	.byte	$00
	.byte	$00
	.byte	$00
	.byte	$00
	.byte	$00
	.byte	$00
	.byte	$00
	.byte	$00
	.byte	$00
	.byte	$01
	.byte	$01
	.byte	$01
	.byte	$01
	.byte	$00
	.byte	$00
	.byte	$00
	.byte	$00
	.byte	$00
	.byte	$00
	.byte	$00
	.byte	$00
	.byte	$00
	.byte	$00
	.byte	$00
	.byte	$00
	.byte	$00
	.byte	$00
	.byte	$00
	.byte	$00
	.byte	$00
	.byte	$00
	.byte	$00
	.byte	$00
	.byte	$00
	.byte	$00
	.byte	$00
	.byte	$00
	.byte	$00
	.byte	$00
	.byte	$00
	.byte	$00
	.byte	$01
	.byte	$01
	.byte	$01
	.byte	$01
	.byte	$00
	.byte	$00
	.byte	$00
	.byte	$00
	.byte	$00
	.byte	$00
	.byte	$00
	.byte	$00
	.byte	$00
	.byte	$00
	.byte	$00
	.byte	$00
	.byte	$00
	.byte	$00
	.byte	$00
	.byte	$00
	.byte	$00
	.byte	$00
	.byte	$00
	.byte	$00
	.byte	$00
	.byte	$00
	.byte	$00
	.byte	$00
	.byte	$00
	.byte	$00
	.byte	$00
	.byte	$00
	.byte	$01
	.byte	$01
	.byte	$01
	.byte	$01
	.byte	$01
	.byte	$01
	.byte	$01
	.byte	$01
	.byte	$01
	.byte	$01
	.byte	$01
	.byte	$01
	.byte	$01
	.byte	$01
	.byte	$01
	.byte	$01
	.byte	$01
	.byte	$01
	.byte	$01
	.byte	$01
	.byte	$01
	.byte	$01
	.byte	$01
	.byte	$01
	.byte	$01
	.byte	$01
	.byte	$01
	.byte	$01
	.byte	$01
	.byte	$01
	.byte	$01
	.byte	$01
	.byte	$01
	.byte	$01
	.byte	$01
	.byte	$01
	.byte	$01
	.byte	$01
	.byte	$01
	.byte	$01
	.byte	$01
	.byte	$01
	.byte	$01
	.byte	$01
	.byte	$01
	.byte	$01
	.byte	$01
	.byte	$01
	.byte	$01
	.byte	$01
	.byte	$01
	.byte	$01
	.byte	$01
	.byte	$01
	.byte	$01
	.byte	$01
	.byte	$01
	.byte	$01
	.byte	$01
	.byte	$01
	.byte	$01
	.byte	$01
	.byte	$01
	.byte	$01
	.byte	$01
	.byte	$01
_c_map4:
	.byte	$01
	.byte	$01
	.byte	$01
	.byte	$01
	.byte	$01
	.byte	$01
	.byte	$01
	.byte	$01
	.byte	$01
	.byte	$01
	.byte	$01
	.byte	$01
	.byte	$01
	.byte	$01
	.byte	$01
	.byte	$01
	.byte	$01
	.byte	$01
	.byte	$01
	.byte	$01
	.byte	$01
	.byte	$01
	.byte	$01
	.byte	$01
	.byte	$01
	.byte	$01
	.byte	$01
	.byte	$01
	.byte	$01
	.byte	$01
	.byte	$01
	.byte	$01
	.byte	$01
	.byte	$01
	.byte	$01
	.byte	$01
	.byte	$01
	.byte	$01
	.byte	$01
	.byte	$01
	.byte	$01
	.byte	$01
	.byte	$01
	.byte	$01
	.byte	$01
	.byte	$01
	.byte	$01
	.byte	$01
	.byte	$01
	.byte	$01
	.byte	$01
	.byte	$01
	.byte	$01
	.byte	$01
	.byte	$01
	.byte	$01
	.byte	$01
	.byte	$01
	.byte	$01
	.byte	$01
	.byte	$01
	.byte	$01
	.byte	$01
	.byte	$01
	.byte	$01
	.byte	$01
	.byte	$00
	.byte	$00
	.byte	$00
	.byte	$00
	.byte	$00
	.byte	$00
	.byte	$00
	.byte	$00
	.byte	$00
	.byte	$00
	.byte	$00
	.byte	$00
	.byte	$00
	.byte	$00
	.byte	$00
	.byte	$00
	.byte	$00
	.byte	$00
	.byte	$00
	.byte	$00
	.byte	$00
	.byte	$00
	.byte	$00
	.byte	$00
	.byte	$00
	.byte	$00
	.byte	$00
	.byte	$00
	.byte	$01
	.byte	$01
	.byte	$01
	.byte	$01
	.byte	$00
	.byte	$00
	.byte	$00
	.byte	$00
	.byte	$00
	.byte	$00
	.byte	$00
	.byte	$00
	.byte	$00
	.byte	$00
	.byte	$00
	.byte	$00
	.byte	$00
	.byte	$00
	.byte	$00
	.byte	$00
	.byte	$00
	.byte	$00
	.byte	$00
	.byte	$00
	.byte	$00
	.byte	$00
	.byte	$00
	.byte	$00
	.byte	$00
	.byte	$00
	.byte	$00
	.byte	$00
	.byte	$01
	.byte	$01
	.byte	$01
	.byte	$01
	.byte	$00
	.byte	$00
	.byte	$00
	.byte	$00
	.byte	$00
	.byte	$00
	.byte	$00
	.byte	$00
	.byte	$00
	.byte	$00
	.byte	$00
	.byte	$00
	.byte	$00
	.byte	$00
	.byte	$00
	.byte	$00
	.byte	$00
	.byte	$00
	.byte	$00
	.byte	$00
	.byte	$00
	.byte	$00
	.byte	$00
	.byte	$00
	.byte	$00
	.byte	$00
	.byte	$00
	.byte	$00
	.byte	$01
	.byte	$01
	.byte	$01
	.byte	$01
	.byte	$00
	.byte	$00
	.byte	$00
	.byte	$00
	.byte	$00
	.byte	$00
	.byte	$00
	.byte	$00
	.byte	$00
	.byte	$00
	.byte	$00
	.byte	$00
	.byte	$00
	.byte	$00
	.byte	$00
	.byte	$00
	.byte	$00
	.byte	$00
	.byte	$00
	.byte	$00
	.byte	$00
	.byte	$00
	.byte	$00
	.byte	$00
	.byte	$00
	.byte	$00
	.byte	$00
	.byte	$00
	.byte	$01
	.byte	$01
	.byte	$01
	.byte	$01
	.byte	$00
	.byte	$00
	.byte	$00
	.byte	$00
	.byte	$00
	.byte	$00
	.byte	$00
	.byte	$00
	.byte	$00
	.byte	$00
	.byte	$00
	.byte	$00
	.byte	$00
	.byte	$00
	.byte	$00
	.byte	$00
	.byte	$00
	.byte	$00
	.byte	$00
	.byte	$00
	.byte	$00
	.byte	$00
	.byte	$00
	.byte	$00
	.byte	$00
	.byte	$00
	.byte	$00
	.byte	$00
	.byte	$01
	.byte	$01
	.byte	$01
	.byte	$01
	.byte	$00
	.byte	$00
	.byte	$00
	.byte	$01
	.byte	$01
	.byte	$01
	.byte	$01
	.byte	$01
	.byte	$01
	.byte	$01
	.byte	$01
	.byte	$01
	.byte	$01
	.byte	$01
	.byte	$01
	.byte	$01
	.byte	$01
	.byte	$01
	.byte	$01
	.byte	$01
	.byte	$01
	.byte	$01
	.byte	$01
	.byte	$01
	.byte	$00
	.byte	$00
	.byte	$00
	.byte	$00
	.byte	$01
	.byte	$01
	.byte	$01
	.byte	$01
	.byte	$00
	.byte	$00
	.byte	$00
	.byte	$01
	.byte	$00
	.byte	$00
	.byte	$00
	.byte	$00
	.byte	$00
	.byte	$00
	.byte	$00
	.byte	$00
	.byte	$00
	.byte	$00
	.byte	$00
	.byte	$00
	.byte	$00
	.byte	$00
	.byte	$00
	.byte	$00
	.byte	$00
	.byte	$00
	.byte	$00
	.byte	$01
	.byte	$00
	.byte	$00
	.byte	$00
	.byte	$00
	.byte	$01
	.byte	$01
	.byte	$01
	.byte	$01
	.byte	$00
	.byte	$00
	.byte	$00
	.byte	$01
	.byte	$00
	.byte	$00
	.byte	$00
	.byte	$00
	.byte	$00
	.byte	$00
	.byte	$00
	.byte	$00
	.byte	$00
	.byte	$00
	.byte	$00
	.byte	$00
	.byte	$00
	.byte	$00
	.byte	$00
	.byte	$00
	.byte	$00
	.byte	$00
	.byte	$00
	.byte	$01
	.byte	$00
	.byte	$00
	.byte	$00
	.byte	$00
	.byte	$01
	.byte	$01
	.byte	$01
	.byte	$01
	.byte	$00
	.byte	$00
	.byte	$00
	.byte	$01
	.byte	$00
	.byte	$00
	.byte	$00
	.byte	$00
	.byte	$00
	.byte	$00
	.byte	$00
	.byte	$00
	.byte	$00
	.byte	$00
	.byte	$00
	.byte	$00
	.byte	$00
	.byte	$00
	.byte	$00
	.byte	$00
	.byte	$00
	.byte	$00
	.byte	$00
	.byte	$01
	.byte	$00
	.byte	$00
	.byte	$00
	.byte	$00
	.byte	$01
	.byte	$01
	.byte	$01
	.byte	$01
	.byte	$00
	.byte	$00
	.byte	$00
	.byte	$01
	.byte	$00
	.byte	$00
	.byte	$00
	.byte	$00
	.byte	$00
	.byte	$00
	.byte	$00
	.byte	$00
	.byte	$00
	.byte	$00
	.byte	$00
	.byte	$00
	.byte	$00
	.byte	$00
	.byte	$00
	.byte	$00
	.byte	$00
	.byte	$00
	.byte	$00
	.byte	$01
	.byte	$00
	.byte	$00
	.byte	$00
	.byte	$00
	.byte	$01
	.byte	$01
	.byte	$01
	.byte	$01
	.byte	$00
	.byte	$00
	.byte	$00
	.byte	$01
	.byte	$00
	.byte	$00
	.byte	$00
	.byte	$00
	.byte	$00
	.byte	$00
	.byte	$00
	.byte	$00
	.byte	$00
	.byte	$00
	.byte	$00
	.byte	$00
	.byte	$00
	.byte	$00
	.byte	$00
	.byte	$00
	.byte	$00
	.byte	$00
	.byte	$00
	.byte	$01
	.byte	$00
	.byte	$00
	.byte	$00
	.byte	$00
	.byte	$01
	.byte	$01
	.byte	$01
	.byte	$01
	.byte	$00
	.byte	$00
	.byte	$00
	.byte	$01
	.byte	$00
	.byte	$00
	.byte	$00
	.byte	$00
	.byte	$00
	.byte	$00
	.byte	$00
	.byte	$00
	.byte	$00
	.byte	$00
	.byte	$00
	.byte	$00
	.byte	$00
	.byte	$00
	.byte	$00
	.byte	$00
	.byte	$00
	.byte	$00
	.byte	$00
	.byte	$01
	.byte	$00
	.byte	$00
	.byte	$00
	.byte	$00
	.byte	$01
	.byte	$01
	.byte	$01
	.byte	$01
	.byte	$00
	.byte	$00
	.byte	$00
	.byte	$01
	.byte	$00
	.byte	$00
	.byte	$00
	.byte	$00
	.byte	$00
	.byte	$00
	.byte	$00
	.byte	$00
	.byte	$00
	.byte	$00
	.byte	$00
	.byte	$00
	.byte	$00
	.byte	$00
	.byte	$00
	.byte	$00
	.byte	$00
	.byte	$00
	.byte	$00
	.byte	$01
	.byte	$00
	.byte	$00
	.byte	$00
	.byte	$00
	.byte	$01
	.byte	$01
	.byte	$01
	.byte	$01
	.byte	$00
	.byte	$00
	.byte	$00
	.byte	$01
	.byte	$01
	.byte	$01
	.byte	$01
	.byte	$01
	.byte	$01
	.byte	$01
	.byte	$01
	.byte	$01
	.byte	$01
	.byte	$01
	.byte	$01
	.byte	$01
	.byte	$01
	.byte	$01
	.byte	$01
	.byte	$01
	.byte	$01
	.byte	$01
	.byte	$01
	.byte	$01
	.byte	$00
	.byte	$00
	.byte	$00
	.byte	$00
	.byte	$01
	.byte	$01
	.byte	$01
	.byte	$01
	.byte	$00
	.byte	$00
	.byte	$00
	.byte	$00
	.byte	$00
	.byte	$00
	.byte	$00
	.byte	$00
	.byte	$00
	.byte	$00
	.byte	$00
	.byte	$00
	.byte	$00
	.byte	$00
	.byte	$00
	.byte	$00
	.byte	$00
	.byte	$00
	.byte	$00
	.byte	$00
	.byte	$00
	.byte	$00
	.byte	$00
	.byte	$00
	.byte	$00
	.byte	$00
	.byte	$00
	.byte	$00
	.byte	$01
	.byte	$01
	.byte	$01
	.byte	$01
	.byte	$00
	.byte	$00
	.byte	$00
	.byte	$00
	.byte	$00
	.byte	$00
	.byte	$00
	.byte	$00
	.byte	$00
	.byte	$00
	.byte	$00
	.byte	$00
	.byte	$00
	.byte	$00
	.byte	$00
	.byte	$00
	.byte	$00
	.byte	$00
	.byte	$00
	.byte	$00
	.byte	$00
	.byte	$00
	.byte	$00
	.byte	$00
	.byte	$00
	.byte	$00
	.byte	$00
	.byte	$00
	.byte	$01
	.byte	$01
	.byte	$01
	.byte	$01
	.byte	$00
	.byte	$00
	.byte	$00
	.byte	$00
	.byte	$00
	.byte	$00
	.byte	$00
	.byte	$00
	.byte	$00
	.byte	$00
	.byte	$00
	.byte	$00
	.byte	$00
	.byte	$00
	.byte	$00
	.byte	$00
	.byte	$00
	.byte	$00
	.byte	$00
	.byte	$00
	.byte	$00
	.byte	$00
	.byte	$00
	.byte	$00
	.byte	$00
	.byte	$00
	.byte	$00
	.byte	$00
	.byte	$01
	.byte	$01
	.byte	$01
	.byte	$01
	.byte	$00
	.byte	$00
	.byte	$00
	.byte	$00
	.byte	$00
	.byte	$00
	.byte	$00
	.byte	$00
	.byte	$00
	.byte	$00
	.byte	$00
	.byte	$00
	.byte	$00
	.byte	$00
	.byte	$00
	.byte	$00
	.byte	$00
	.byte	$00
	.byte	$00
	.byte	$00
	.byte	$00
	.byte	$00
	.byte	$00
	.byte	$00
	.byte	$00
	.byte	$00
	.byte	$00
	.byte	$00
	.byte	$01
	.byte	$01
	.byte	$01
	.byte	$01
	.byte	$00
	.byte	$00
	.byte	$00
	.byte	$00
	.byte	$00
	.byte	$00
	.byte	$00
	.byte	$00
	.byte	$00
	.byte	$00
	.byte	$00
	.byte	$00
	.byte	$00
	.byte	$00
	.byte	$00
	.byte	$00
	.byte	$00
	.byte	$00
	.byte	$00
	.byte	$00
	.byte	$00
	.byte	$00
	.byte	$00
	.byte	$00
	.byte	$00
	.byte	$00
	.byte	$00
	.byte	$00
	.byte	$01
	.byte	$01
	.byte	$01
	.byte	$01
	.byte	$00
	.byte	$00
	.byte	$00
	.byte	$00
	.byte	$00
	.byte	$00
	.byte	$00
	.byte	$00
	.byte	$00
	.byte	$00
	.byte	$00
	.byte	$00
	.byte	$00
	.byte	$00
	.byte	$00
	.byte	$00
	.byte	$00
	.byte	$00
	.byte	$00
	.byte	$00
	.byte	$00
	.byte	$00
	.byte	$00
	.byte	$00
	.byte	$00
	.byte	$00
	.byte	$00
	.byte	$00
	.byte	$01
	.byte	$01
	.byte	$01
	.byte	$01
	.byte	$00
	.byte	$00
	.byte	$00
	.byte	$00
	.byte	$00
	.byte	$00
	.byte	$00
	.byte	$00
	.byte	$00
	.byte	$00
	.byte	$00
	.byte	$00
	.byte	$00
	.byte	$00
	.byte	$00
	.byte	$00
	.byte	$00
	.byte	$00
	.byte	$00
	.byte	$00
	.byte	$00
	.byte	$00
	.byte	$00
	.byte	$00
	.byte	$00
	.byte	$00
	.byte	$00
	.byte	$00
	.byte	$01
	.byte	$01
	.byte	$01
	.byte	$01
	.byte	$00
	.byte	$00
	.byte	$00
	.byte	$00
	.byte	$00
	.byte	$00
	.byte	$00
	.byte	$00
	.byte	$00
	.byte	$00
	.byte	$00
	.byte	$00
	.byte	$00
	.byte	$00
	.byte	$00
	.byte	$00
	.byte	$00
	.byte	$00
	.byte	$00
	.byte	$00
	.byte	$00
	.byte	$00
	.byte	$00
	.byte	$00
	.byte	$00
	.byte	$00
	.byte	$00
	.byte	$00
	.byte	$01
	.byte	$01
	.byte	$01
	.byte	$01
	.byte	$00
	.byte	$00
	.byte	$00
	.byte	$00
	.byte	$00
	.byte	$00
	.byte	$00
	.byte	$00
	.byte	$00
	.byte	$00
	.byte	$00
	.byte	$00
	.byte	$00
	.byte	$00
	.byte	$00
	.byte	$00
	.byte	$00
	.byte	$00
	.byte	$00
	.byte	$00
	.byte	$00
	.byte	$00
	.byte	$00
	.byte	$00
	.byte	$00
	.byte	$00
	.byte	$00
	.byte	$00
	.byte	$01
	.byte	$01
	.byte	$01
	.byte	$01
	.byte	$00
	.byte	$00
	.byte	$00
	.byte	$00
	.byte	$00
	.byte	$00
	.byte	$00
	.byte	$00
	.byte	$00
	.byte	$00
	.byte	$00
	.byte	$00
	.byte	$00
	.byte	$00
	.byte	$00
	.byte	$00
	.byte	$00
	.byte	$00
	.byte	$00
	.byte	$00
	.byte	$00
	.byte	$00
	.byte	$00
	.byte	$00
	.byte	$00
	.byte	$00
	.byte	$00
	.byte	$00
	.byte	$01
	.byte	$01
	.byte	$01
	.byte	$01
	.byte	$00
	.byte	$00
	.byte	$00
	.byte	$00
	.byte	$00
	.byte	$00
	.byte	$00
	.byte	$00
	.byte	$00
	.byte	$00
	.byte	$00
	.byte	$00
	.byte	$00
	.byte	$00
	.byte	$00
	.byte	$00
	.byte	$00
	.byte	$00
	.byte	$00
	.byte	$00
	.byte	$00
	.byte	$00
	.byte	$00
	.byte	$00
	.byte	$00
	.byte	$00
	.byte	$00
	.byte	$00
	.byte	$01
	.byte	$01
	.byte	$01
	.byte	$01
	.byte	$00
	.byte	$00
	.byte	$00
	.byte	$00
	.byte	$00
	.byte	$00
	.byte	$00
	.byte	$00
	.byte	$00
	.byte	$00
	.byte	$00
	.byte	$00
	.byte	$00
	.byte	$00
	.byte	$00
	.byte	$00
	.byte	$00
	.byte	$00
	.byte	$00
	.byte	$00
	.byte	$00
	.byte	$00
	.byte	$00
	.byte	$00
	.byte	$00
	.byte	$00
	.byte	$00
	.byte	$00
	.byte	$01
	.byte	$01
	.byte	$01
	.byte	$01
	.byte	$01
	.byte	$01
	.byte	$01
	.byte	$01
	.byte	$01
	.byte	$01
	.byte	$01
	.byte	$01
	.byte	$01
	.byte	$01
	.byte	$01
	.byte	$01
	.byte	$01
	.byte	$01
	.byte	$01
	.byte	$01
	.byte	$01
	.byte	$01
	.byte	$01
	.byte	$01
	.byte	$01
	.byte	$01
	.byte	$01
	.byte	$01
	.byte	$01
	.byte	$01
	.byte	$01
	.byte	$01
	.byte	$01
	.byte	$01
	.byte	$01
	.byte	$01
	.byte	$01
	.byte	$01
	.byte	$01
	.byte	$01
	.byte	$01
	.byte	$01
	.byte	$01
	.byte	$01
	.byte	$01
	.byte	$01
	.byte	$01
	.byte	$01
	.byte	$01
	.byte	$01
	.byte	$01
	.byte	$01
	.byte	$01
	.byte	$01
	.byte	$01
	.byte	$01
	.byte	$01
	.byte	$01
	.byte	$01
	.byte	$01
	.byte	$01
	.byte	$01
	.byte	$01
	.byte	$01
	.byte	$01
	.byte	$01
_c_map5:
	.byte	$01
	.byte	$01
	.byte	$01
	.byte	$01
	.byte	$01
	.byte	$01
	.byte	$01
	.byte	$01
	.byte	$01
	.byte	$01
	.byte	$01
	.byte	$01
	.byte	$01
	.byte	$01
	.byte	$01
	.byte	$01
	.byte	$01
	.byte	$01
	.byte	$01
	.byte	$01
	.byte	$01
	.byte	$01
	.byte	$01
	.byte	$01
	.byte	$01
	.byte	$01
	.byte	$01
	.byte	$01
	.byte	$01
	.byte	$01
	.byte	$01
	.byte	$01
	.byte	$01
	.byte	$01
	.byte	$01
	.byte	$01
	.byte	$01
	.byte	$01
	.byte	$01
	.byte	$01
	.byte	$01
	.byte	$01
	.byte	$01
	.byte	$01
	.byte	$01
	.byte	$01
	.byte	$01
	.byte	$01
	.byte	$01
	.byte	$01
	.byte	$01
	.byte	$01
	.byte	$01
	.byte	$01
	.byte	$01
	.byte	$01
	.byte	$01
	.byte	$01
	.byte	$01
	.byte	$01
	.byte	$01
	.byte	$01
	.byte	$01
	.byte	$01
	.byte	$01
	.byte	$01
	.byte	$00
	.byte	$00
	.byte	$00
	.byte	$00
	.byte	$00
	.byte	$00
	.byte	$00
	.byte	$00
	.byte	$00
	.byte	$00
	.byte	$00
	.byte	$00
	.byte	$00
	.byte	$00
	.byte	$00
	.byte	$00
	.byte	$00
	.byte	$00
	.byte	$00
	.byte	$00
	.byte	$00
	.byte	$00
	.byte	$00
	.byte	$00
	.byte	$00
	.byte	$00
	.byte	$00
	.byte	$00
	.byte	$01
	.byte	$01
	.byte	$01
	.byte	$01
	.byte	$01
	.byte	$01
	.byte	$01
	.byte	$01
	.byte	$01
	.byte	$01
	.byte	$01
	.byte	$01
	.byte	$01
	.byte	$00
	.byte	$00
	.byte	$00
	.byte	$00
	.byte	$00
	.byte	$00
	.byte	$00
	.byte	$00
	.byte	$00
	.byte	$00
	.byte	$00
	.byte	$01
	.byte	$01
	.byte	$01
	.byte	$01
	.byte	$01
	.byte	$01
	.byte	$01
	.byte	$01
	.byte	$01
	.byte	$01
	.byte	$01
	.byte	$01
	.byte	$01
	.byte	$00
	.byte	$00
	.byte	$00
	.byte	$00
	.byte	$00
	.byte	$00
	.byte	$00
	.byte	$01
	.byte	$00
	.byte	$00
	.byte	$00
	.byte	$00
	.byte	$00
	.byte	$00
	.byte	$00
	.byte	$00
	.byte	$00
	.byte	$00
	.byte	$00
	.byte	$01
	.byte	$00
	.byte	$00
	.byte	$00
	.byte	$00
	.byte	$00
	.byte	$00
	.byte	$00
	.byte	$01
	.byte	$01
	.byte	$01
	.byte	$01
	.byte	$01
	.byte	$00
	.byte	$00
	.byte	$00
	.byte	$00
	.byte	$00
	.byte	$00
	.byte	$00
	.byte	$01
	.byte	$00
	.byte	$00
	.byte	$00
	.byte	$00
	.byte	$00
	.byte	$00
	.byte	$00
	.byte	$00
	.byte	$00
	.byte	$00
	.byte	$00
	.byte	$01
	.byte	$00
	.byte	$00
	.byte	$00
	.byte	$00
	.byte	$00
	.byte	$00
	.byte	$00
	.byte	$01
	.byte	$01
	.byte	$01
	.byte	$01
	.byte	$01
	.byte	$00
	.byte	$00
	.byte	$00
	.byte	$00
	.byte	$00
	.byte	$00
	.byte	$00
	.byte	$01
	.byte	$00
	.byte	$00
	.byte	$00
	.byte	$00
	.byte	$00
	.byte	$00
	.byte	$00
	.byte	$00
	.byte	$00
	.byte	$00
	.byte	$00
	.byte	$01
	.byte	$00
	.byte	$00
	.byte	$00
	.byte	$00
	.byte	$00
	.byte	$00
	.byte	$00
	.byte	$01
	.byte	$01
	.byte	$01
	.byte	$01
	.byte	$01
	.byte	$00
	.byte	$00
	.byte	$00
	.byte	$00
	.byte	$00
	.byte	$00
	.byte	$00
	.byte	$01
	.byte	$00
	.byte	$00
	.byte	$00
	.byte	$00
	.byte	$00
	.byte	$00
	.byte	$00
	.byte	$00
	.byte	$00
	.byte	$00
	.byte	$00
	.byte	$01
	.byte	$00
	.byte	$00
	.byte	$00
	.byte	$00
	.byte	$00
	.byte	$00
	.byte	$00
	.byte	$01
	.byte	$01
	.byte	$01
	.byte	$01
	.byte	$01
	.byte	$00
	.byte	$00
	.byte	$00
	.byte	$00
	.byte	$00
	.byte	$00
	.byte	$00
	.byte	$01
	.byte	$00
	.byte	$00
	.byte	$00
	.byte	$00
	.byte	$00
	.byte	$00
	.byte	$00
	.byte	$00
	.byte	$00
	.byte	$00
	.byte	$00
	.byte	$01
	.byte	$00
	.byte	$00
	.byte	$00
	.byte	$00
	.byte	$00
	.byte	$00
	.byte	$00
	.byte	$01
	.byte	$01
	.byte	$01
	.byte	$01
	.byte	$01
	.byte	$00
	.byte	$00
	.byte	$00
	.byte	$00
	.byte	$00
	.byte	$00
	.byte	$00
	.byte	$01
	.byte	$00
	.byte	$00
	.byte	$00
	.byte	$00
	.byte	$00
	.byte	$00
	.byte	$00
	.byte	$00
	.byte	$00
	.byte	$00
	.byte	$00
	.byte	$01
	.byte	$00
	.byte	$00
	.byte	$00
	.byte	$00
	.byte	$00
	.byte	$00
	.byte	$00
	.byte	$01
	.byte	$01
	.byte	$01
	.byte	$01
	.byte	$01
	.byte	$01
	.byte	$01
	.byte	$01
	.byte	$01
	.byte	$01
	.byte	$01
	.byte	$01
	.byte	$01
	.byte	$00
	.byte	$00
	.byte	$01
	.byte	$01
	.byte	$01
	.byte	$01
	.byte	$01
	.byte	$01
	.byte	$00
	.byte	$00
	.byte	$00
	.byte	$01
	.byte	$01
	.byte	$01
	.byte	$01
	.byte	$01
	.byte	$01
	.byte	$01
	.byte	$01
	.byte	$01
	.byte	$01
	.byte	$01
	.byte	$01
	.byte	$00
	.byte	$00
	.byte	$00
	.byte	$00
	.byte	$00
	.byte	$00
	.byte	$00
	.byte	$00
	.byte	$00
	.byte	$00
	.byte	$00
	.byte	$01
	.byte	$00
	.byte	$00
	.byte	$00
	.byte	$00
	.byte	$01
	.byte	$00
	.byte	$00
	.byte	$00
	.byte	$00
	.byte	$00
	.byte	$00
	.byte	$00
	.byte	$00
	.byte	$00
	.byte	$00
	.byte	$00
	.byte	$01
	.byte	$01
	.byte	$01
	.byte	$01
	.byte	$00
	.byte	$00
	.byte	$00
	.byte	$00
	.byte	$00
	.byte	$00
	.byte	$00
	.byte	$00
	.byte	$00
	.byte	$00
	.byte	$00
	.byte	$01
	.byte	$00
	.byte	$00
	.byte	$00
	.byte	$00
	.byte	$01
	.byte	$00
	.byte	$00
	.byte	$00
	.byte	$00
	.byte	$00
	.byte	$00
	.byte	$00
	.byte	$00
	.byte	$00
	.byte	$00
	.byte	$00
	.byte	$01
	.byte	$01
	.byte	$01
	.byte	$01
	.byte	$00
	.byte	$00
	.byte	$00
	.byte	$00
	.byte	$00
	.byte	$00
	.byte	$00
	.byte	$00
	.byte	$00
	.byte	$00
	.byte	$00
	.byte	$01
	.byte	$00
	.byte	$00
	.byte	$00
	.byte	$00
	.byte	$01
	.byte	$00
	.byte	$00
	.byte	$00
	.byte	$00
	.byte	$00
	.byte	$00
	.byte	$00
	.byte	$00
	.byte	$00
	.byte	$00
	.byte	$00
	.byte	$01
	.byte	$01
	.byte	$01
	.byte	$01
	.byte	$00
	.byte	$00
	.byte	$00
	.byte	$00
	.byte	$00
	.byte	$00
	.byte	$00
	.byte	$00
	.byte	$00
	.byte	$00
	.byte	$00
	.byte	$01
	.byte	$00
	.byte	$00
	.byte	$00
	.byte	$00
	.byte	$01
	.byte	$00
	.byte	$00
	.byte	$00
	.byte	$00
	.byte	$00
	.byte	$00
	.byte	$00
	.byte	$00
	.byte	$00
	.byte	$00
	.byte	$00
	.byte	$01
	.byte	$01
	.byte	$01
	.byte	$01
	.byte	$00
	.byte	$00
	.byte	$00
	.byte	$00
	.byte	$00
	.byte	$00
	.byte	$00
	.byte	$00
	.byte	$00
	.byte	$00
	.byte	$00
	.byte	$01
	.byte	$01
	.byte	$01
	.byte	$01
	.byte	$01
	.byte	$01
	.byte	$00
	.byte	$00
	.byte	$00
	.byte	$00
	.byte	$00
	.byte	$00
	.byte	$00
	.byte	$00
	.byte	$00
	.byte	$00
	.byte	$00
	.byte	$01
	.byte	$01
	.byte	$01
	.byte	$01
	.byte	$00
	.byte	$00
	.byte	$00
	.byte	$00
	.byte	$00
	.byte	$00
	.byte	$00
	.byte	$00
	.byte	$00
	.byte	$00
	.byte	$00
	.byte	$00
	.byte	$00
	.byte	$00
	.byte	$00
	.byte	$00
	.byte	$00
	.byte	$00
	.byte	$00
	.byte	$00
	.byte	$00
	.byte	$00
	.byte	$00
	.byte	$00
	.byte	$00
	.byte	$00
	.byte	$00
	.byte	$00
	.byte	$01
	.byte	$01
	.byte	$01
	.byte	$01
	.byte	$00
	.byte	$00
	.byte	$01
	.byte	$01
	.byte	$01
	.byte	$01
	.byte	$01
	.byte	$01
	.byte	$01
	.byte	$01
	.byte	$01
	.byte	$01
	.byte	$01
	.byte	$01
	.byte	$01
	.byte	$01
	.byte	$01
	.byte	$01
	.byte	$01
	.byte	$01
	.byte	$01
	.byte	$01
	.byte	$01
	.byte	$01
	.byte	$01
	.byte	$01
	.byte	$01
	.byte	$00
	.byte	$01
	.byte	$01
	.byte	$01
	.byte	$01
	.byte	$00
	.byte	$00
	.byte	$01
	.byte	$00
	.byte	$00
	.byte	$00
	.byte	$00
	.byte	$00
	.byte	$00
	.byte	$00
	.byte	$00
	.byte	$00
	.byte	$00
	.byte	$00
	.byte	$00
	.byte	$00
	.byte	$00
	.byte	$00
	.byte	$00
	.byte	$00
	.byte	$00
	.byte	$00
	.byte	$00
	.byte	$00
	.byte	$00
	.byte	$00
	.byte	$01
	.byte	$00
	.byte	$01
	.byte	$01
	.byte	$01
	.byte	$01
	.byte	$00
	.byte	$00
	.byte	$01
	.byte	$00
	.byte	$00
	.byte	$00
	.byte	$00
	.byte	$00
	.byte	$00
	.byte	$00
	.byte	$00
	.byte	$00
	.byte	$00
	.byte	$00
	.byte	$00
	.byte	$00
	.byte	$00
	.byte	$00
	.byte	$00
	.byte	$00
	.byte	$00
	.byte	$00
	.byte	$00
	.byte	$00
	.byte	$00
	.byte	$00
	.byte	$01
	.byte	$00
	.byte	$01
	.byte	$01
	.byte	$01
	.byte	$01
	.byte	$00
	.byte	$00
	.byte	$01
	.byte	$00
	.byte	$00
	.byte	$00
	.byte	$00
	.byte	$00
	.byte	$00
	.byte	$00
	.byte	$00
	.byte	$00
	.byte	$00
	.byte	$00
	.byte	$00
	.byte	$00
	.byte	$00
	.byte	$00
	.byte	$00
	.byte	$00
	.byte	$00
	.byte	$00
	.byte	$00
	.byte	$00
	.byte	$00
	.byte	$00
	.byte	$01
	.byte	$00
	.byte	$01
	.byte	$01
	.byte	$01
	.byte	$01
	.byte	$00
	.byte	$00
	.byte	$01
	.byte	$00
	.byte	$00
	.byte	$00
	.byte	$00
	.byte	$00
	.byte	$00
	.byte	$00
	.byte	$00
	.byte	$00
	.byte	$00
	.byte	$00
	.byte	$00
	.byte	$00
	.byte	$00
	.byte	$00
	.byte	$00
	.byte	$00
	.byte	$00
	.byte	$00
	.byte	$00
	.byte	$00
	.byte	$00
	.byte	$00
	.byte	$01
	.byte	$00
	.byte	$01
	.byte	$01
	.byte	$01
	.byte	$01
	.byte	$00
	.byte	$00
	.byte	$01
	.byte	$00
	.byte	$00
	.byte	$00
	.byte	$00
	.byte	$00
	.byte	$00
	.byte	$00
	.byte	$00
	.byte	$00
	.byte	$00
	.byte	$00
	.byte	$00
	.byte	$00
	.byte	$00
	.byte	$00
	.byte	$00
	.byte	$00
	.byte	$00
	.byte	$00
	.byte	$00
	.byte	$00
	.byte	$00
	.byte	$00
	.byte	$01
	.byte	$00
	.byte	$01
	.byte	$01
	.byte	$01
	.byte	$01
	.byte	$00
	.byte	$00
	.byte	$01
	.byte	$00
	.byte	$00
	.byte	$00
	.byte	$00
	.byte	$00
	.byte	$00
	.byte	$00
	.byte	$00
	.byte	$00
	.byte	$00
	.byte	$00
	.byte	$00
	.byte	$00
	.byte	$00
	.byte	$00
	.byte	$00
	.byte	$00
	.byte	$00
	.byte	$00
	.byte	$00
	.byte	$00
	.byte	$00
	.byte	$00
	.byte	$01
	.byte	$00
	.byte	$01
	.byte	$01
	.byte	$01
	.byte	$01
	.byte	$00
	.byte	$00
	.byte	$01
	.byte	$00
	.byte	$00
	.byte	$00
	.byte	$00
	.byte	$00
	.byte	$00
	.byte	$00
	.byte	$00
	.byte	$00
	.byte	$00
	.byte	$00
	.byte	$00
	.byte	$00
	.byte	$00
	.byte	$00
	.byte	$00
	.byte	$00
	.byte	$00
	.byte	$00
	.byte	$00
	.byte	$00
	.byte	$00
	.byte	$00
	.byte	$01
	.byte	$00
	.byte	$01
	.byte	$01
	.byte	$01
	.byte	$01
	.byte	$00
	.byte	$00
	.byte	$01
	.byte	$00
	.byte	$00
	.byte	$00
	.byte	$00
	.byte	$00
	.byte	$00
	.byte	$00
	.byte	$00
	.byte	$00
	.byte	$00
	.byte	$00
	.byte	$00
	.byte	$00
	.byte	$00
	.byte	$00
	.byte	$00
	.byte	$00
	.byte	$00
	.byte	$00
	.byte	$00
	.byte	$00
	.byte	$00
	.byte	$00
	.byte	$01
	.byte	$00
	.byte	$01
	.byte	$01
	.byte	$01
	.byte	$01
	.byte	$00
	.byte	$00
	.byte	$01
	.byte	$00
	.byte	$00
	.byte	$00
	.byte	$00
	.byte	$00
	.byte	$00
	.byte	$00
	.byte	$00
	.byte	$00
	.byte	$00
	.byte	$00
	.byte	$00
	.byte	$00
	.byte	$00
	.byte	$00
	.byte	$00
	.byte	$00
	.byte	$00
	.byte	$00
	.byte	$00
	.byte	$00
	.byte	$00
	.byte	$00
	.byte	$01
	.byte	$00
	.byte	$01
	.byte	$01
	.byte	$01
	.byte	$01
	.byte	$00
	.byte	$00
	.byte	$01
	.byte	$01
	.byte	$01
	.byte	$01
	.byte	$01
	.byte	$01
	.byte	$01
	.byte	$01
	.byte	$01
	.byte	$01
	.byte	$01
	.byte	$01
	.byte	$01
	.byte	$01
	.byte	$01
	.byte	$01
	.byte	$01
	.byte	$01
	.byte	$01
	.byte	$01
	.byte	$01
	.byte	$01
	.byte	$01
	.byte	$01
	.byte	$01
	.byte	$00
	.byte	$01
	.byte	$01
	.byte	$01
	.byte	$01
	.byte	$01
	.byte	$01
	.byte	$01
	.byte	$01
	.byte	$01
	.byte	$01
	.byte	$01
	.byte	$01
	.byte	$01
	.byte	$01
	.byte	$01
	.byte	$01
	.byte	$01
	.byte	$01
	.byte	$01
	.byte	$01
	.byte	$01
	.byte	$01
	.byte	$01
	.byte	$01
	.byte	$01
	.byte	$01
	.byte	$01
	.byte	$01
	.byte	$01
	.byte	$01
	.byte	$01
	.byte	$01
	.byte	$01
	.byte	$01
	.byte	$01
	.byte	$01
	.byte	$01
	.byte	$01
	.byte	$01
	.byte	$01
	.byte	$01
	.byte	$01
	.byte	$01
	.byte	$01
	.byte	$01
	.byte	$01
	.byte	$01
	.byte	$01
	.byte	$01
	.byte	$01
	.byte	$01
	.byte	$01
	.byte	$01
	.byte	$01
	.byte	$01
	.byte	$01
	.byte	$01
	.byte	$01
	.byte	$01
	.byte	$01
	.byte	$01
	.byte	$01
	.byte	$01
	.byte	$01
	.byte	$01
	.byte	$01
_PALETTE:
	.byte	$20
	.byte	$0C
	.byte	$27
	.byte	$37
	.byte	$00
	.byte	$00
	.byte	$00
	.byte	$00
	.byte	$00
	.byte	$00
	.byte	$00
	.byte	$00
	.byte	$00
	.byte	$00
	.byte	$00
	.byte	$00
	.byte	$1C
	.byte	$0C
	.byte	$27
	.byte	$37
	.byte	$00
	.byte	$00
	.byte	$00
	.byte	$00
	.byte	$00
	.byte	$00
	.byte	$00
	.byte	$00
	.byte	$00
	.byte	$00
	.byte	$00
	.byte	$00

.segment	"BSS"

.segment	"ZEROPAGE"
.segment	"BSS"
.segment	"OAM"
.segment	"BSS"
.segment	"ZEROPAGE"
_i:
	.res	2,$00
.segment	"OAM"
_player_tl:
	.res	4,$00
.segment	"OAM"
_player_tr:
	.res	4,$00
.segment	"OAM"
_player_bl:
	.res	4,$00
.segment	"OAM"
_player_br:
	.res	4,$00
.segment	"BSS"
_player_state:
	.res	1,$00
.segment	"BSS"
_game_state:
	.res	1,$00
.segment	"BSS"
_player_left_side:
	.res	1,$00
.segment	"BSS"
_player_right_side:
	.res	1,$00
.segment	"BSS"
_player_bottom:
	.res	1,$00
.segment	"BSS"
_player_top:
	.res	1,$00
.segment	"BSS"
_player_center_x:
	.res	1,$00
.segment	"BSS"
_player_center_y:
	.res	1,$00
.segment	"BSS"
_collision_row:
	.res	1,$00
.segment	"BSS"
_collision_col:
	.res	1,$00
.segment	"BSS"
_blocked:
	.res	1,$00
.segment	"BSS"
_blocked_top:
	.res	1,$00
.segment	"BSS"
_blocked_bot:
	.res	1,$00
.segment	"BSS"
_start_x:
	.res	1,$00
.segment	"BSS"
_start_y:
	.res	1,$00
.segment	"BSS"
_end_x_min:
	.res	1,$00
.segment	"BSS"
_end_x_max:
	.res	1,$00
.segment	"BSS"
_end_y_min:
	.res	1,$00
.segment	"BSS"
_end_y_max:
	.res	1,$00

; ---------------------------------------------------------------
; void __near__ reset_scroll (void)
; ---------------------------------------------------------------

.segment	"CODE"

.proc	_reset_scroll: near

.segment	"CODE"

;
; PPU_SCROLL = 0x00;
;
	lda     #$00
	sta     $2005
;
; PPU_SCROLL = 0x00;
;
	sta     $2005
;
; }
;
	rts

.endproc

; ---------------------------------------------------------------
; void __near__ set_palette (void)
; ---------------------------------------------------------------

.segment	"CODE"

.proc	_set_palette: near

.segment	"CODE"

;
; PPU_ADDRESS = BG_PALETTE_HIGH;
;
	lda     #$3F
	sta     $2006
;
; PPU_ADDRESS = BG_PALETTE_LOW;
;
	lda     #$00
	sta     $2006
;
; for (i = 0; i < sizeof(PALETTE); ++i) // always use ++i, instead of i++
;
	sta     _i
	sta     _i+1
L1B8A:	lda     _i+1
	cmp     #$00
	bne     L1B92
	lda     _i
	cmp     #$20
L1B92:	bcs     L1B8B
;
; PPU_DATA = PALETTE[i];
;
	lda     #<(_PALETTE)
	sta     ptr1
	lda     #>(_PALETTE)
	clc
	adc     _i+1
	sta     ptr1+1
	ldy     _i
	lda     (ptr1),y
	sta     $2007
;
; for (i = 0; i < sizeof(PALETTE); ++i) // always use ++i, instead of i++
;
	inc     _i
	bne     L1B8A
	inc     _i+1
	jmp     L1B8A
;
; reset_scroll();
;
L1B8B:	jmp     _reset_scroll

.endproc

; ---------------------------------------------------------------
; void __near__ init_player (void)
; ---------------------------------------------------------------

.segment	"CODE"

.proc	_init_player: near

.segment	"CODE"

;
; X = start_x;
;
	lda     _start_x
	sta     _X
;
; Y = start_y;
;
	lda     _start_y
	sta     _Y
;
; player_tl.x = MIN_X + X;
;
	lda     _X
	sta     _player_tl+3
;
; player_tl.y = MIN_Y + Y;
;
	lda     _Y
	sta     _player_tl
;
; player_tl.attributes = 0x00;
;
	lda     #$00
	sta     _player_tl+2
;
; player_tl.tile_index = 0x80;
;
	lda     #$80
	sta     _player_tl+1
;
; player_tr.x = MIN_X + X + 8;
;
	lda     _X
	clc
	adc     #$08
	sta     _player_tr+3
;
; player_tr.y = MIN_Y + Y;
;
	lda     _Y
	sta     _player_tr
;
; player_tr.attributes = 0x00;
;
	lda     #$00
	sta     _player_tr+2
;
; player_tr.tile_index = 0x81;
;
	lda     #$81
	sta     _player_tr+1
;
; player_bl.x = MIN_X + X;
;
	lda     _X
	sta     _player_bl+3
;
; player_bl.y = MIN_Y + Y + 8;
;
	lda     _Y
	clc
	adc     #$08
	sta     _player_bl
;
; player_bl.attributes = 0x00;
;
	lda     #$00
	sta     _player_bl+2
;
; player_bl.tile_index = 0x90;
;
	lda     #$90
	sta     _player_bl+1
;
; player_br.x = MIN_X + X + 8;
;
	lda     _X
	clc
	adc     #$08
	sta     _player_br+3
;
; player_br.y = MIN_Y + Y + 8;
;
	lda     _Y
	clc
	adc     #$08
	sta     _player_br
;
; player_br.attributes = 0x00;
;
	lda     #$00
	sta     _player_br+2
;
; player_br.tile_index = 0x91;
;
	lda     #$91
	sta     _player_br+1
;
; reset_scroll();
;
	jmp     _reset_scroll

.endproc

; ---------------------------------------------------------------
; void __near__ set_player (void)
; ---------------------------------------------------------------

.segment	"CODE"

.proc	_set_player: near

.segment	"CODE"

;
; X = start_x;
;
	lda     _start_x
	sta     _X
;
; Y = start_y;
;
	lda     _start_y
	sta     _Y
;
; player_tl.x = MIN_X + X;
;
	lda     _X
	sta     _player_tl+3
;
; player_tl.y = MIN_Y + Y;
;
	lda     _Y
	sta     _player_tl
;
; player_tr.x = MIN_X + X + 8;
;
	lda     _X
	clc
	adc     #$08
	sta     _player_tr+3
;
; player_tr.y = MIN_Y + Y;
;
	lda     _Y
	sta     _player_tr
;
; player_bl.x = MIN_X + X;
;
	lda     _X
	sta     _player_bl+3
;
; player_bl.y = MIN_Y + Y + 8;
;
	lda     _Y
	clc
	adc     #$08
	sta     _player_bl
;
; player_br.x = MIN_X + X + 8;
;
	lda     _X
	clc
	adc     #$08
	sta     _player_br+3
;
; player_br.y = MIN_Y + Y + 8;
;
	lda     _Y
	clc
	adc     #$08
	sta     _player_br
;
; reset_scroll();
;
	jmp     _reset_scroll

.endproc

; ---------------------------------------------------------------
; void __near__ screen_on (void)
; ---------------------------------------------------------------

.segment	"CODE"

.proc	_screen_on: near

.segment	"CODE"

;
; PPU_CTRL = 0x80; // 1000 0000, turns NMI on
;
	lda     #$80
	sta     $2000
;
; PPU_MASK = 0x1e; // 0001 1110, show sprites and background
;
	lda     #$1E
	sta     $2001
;
; }
;
	rts

.endproc

; ---------------------------------------------------------------
; void __near__ screen_off (void)
; ---------------------------------------------------------------

.segment	"CODE"

.proc	_screen_off: near

.segment	"CODE"

;
; PPU_CTRL = 0x00;
;
	lda     #$00
	sta     $2000
;
; PPU_MASK = 0x00;
;
	sta     $2001
;
; }
;
	rts

.endproc

; ---------------------------------------------------------------
; void __near__ update_time (void)
; ---------------------------------------------------------------

.segment	"CODE"

.proc	_update_time: near

.segment	"CODE"

;
; PPU_ADDRESS = NAMETABLE0_HIGH + 0x00; // top-right of screen
;
	lda     #$20
	sta     $2006
;
; PPU_ADDRESS = NAMETABLE0_LOW  + 0x59;
;
	lda     #$59
	sta     $2006
;
; PPU_DATA = NUMBER_0 + time_min;
;
	lda     _time_min
	clc
	adc     #$30
	sta     $2007
;
; PPU_DATA = 0x3a; // ':'
;
	lda     #$3A
	sta     $2007
;
; PPU_DATA = NUMBER_0 + time_sec_high;
;
	lda     _time_sec_high
	clc
	adc     #$30
	sta     $2007
;
; PPU_DATA = NUMBER_0 + time_sec_low;
;
	lda     _time_sec_low
	clc
	adc     #$30
	sta     $2007
;
; reset_scroll();
;
	jmp     _reset_scroll

.endproc

; ---------------------------------------------------------------
; void __near__ input_handler (void)
; ---------------------------------------------------------------

.segment	"CODE"

.proc	_input_handler: near

.segment	"CODE"

;
; if (InputPort1 & BUTTON_UP) {
;
	lda     _InputPort1
	and     #$08
	beq     L1FEC
;
; --player_tr.y;
;
	dec     _player_tr
;
; --player_tl.y;
;
	dec     _player_tl
;
; --player_bl.y;
;
	dec     _player_bl
;
; --player_br.y;
;
	dec     _player_br
;
; player_state = Going_Up;
;
	lda     #$00
	sta     _player_state
;
; if (InputPort1 & BUTTON_DOWN) {
;
L1FEC:	lda     _InputPort1
	and     #$04
	beq     L1C0C
;
; ++player_tr.y;
;
	inc     _player_tr
;
; ++player_tl.y;
;
	inc     _player_tl
;
; ++player_bl.y;
;
	inc     _player_bl
;
; ++player_br.y;
;
	inc     _player_br
;
; player_state = Going_Down;
;
	lda     #$01
	sta     _player_state
;
; collision_check_vert();
;
L1C0C:	jsr     _collision_check_vert
;
; if (InputPort1 & BUTTON_LEFT) {
;
	lda     _InputPort1
	and     #$02
	beq     L1FED
;
; --player_tl.x;
;
	dec     _player_tl+3
;
; --player_tr.x;
;
	dec     _player_tr+3
;
; --player_bl.x;
;
	dec     _player_bl+3
;
; --player_br.x;
;
	dec     _player_br+3
;
; player_state = Going_Left;
;
	lda     #$02
	sta     _player_state
;
; if (InputPort1 & BUTTON_RIGHT) {
;
L1FED:	lda     _InputPort1
	and     #$01
	beq     L1C1D
;
; ++player_tl.x;
;
	inc     _player_tl+3
;
; ++player_tr.x;
;
	inc     _player_tr+3
;
; ++player_bl.x;
;
	inc     _player_bl+3
;
; ++player_br.x;
;
	inc     _player_br+3
;
; player_state = Going_Right;
;
	lda     #$03
	sta     _player_state
;
; collision_check_horiz();
;
L1C1D:	jmp     _collision_check_horiz

.endproc

; ---------------------------------------------------------------
; void __near__ update_sprite (void)
; ---------------------------------------------------------------

.segment	"CODE"

.proc	_update_sprite: near

.segment	"CODE"

;
; if (game_state != End) {
;
	lda     _game_state
	cmp     #$03
	beq     L1FF3
;
; if (player_state == Going_Up) {
;
	lda     _player_state
	bne     L1FEF
;
; player_tl.tile_index = 0x86;
;
	lda     #$86
	sta     _player_tl+1
;
; player_tr.tile_index = 0x87;
;
	lda     #$87
	sta     _player_tr+1
;
; player_bl.tile_index = 0x90;
;
	lda     #$90
	sta     _player_bl+1
;
; player_br.tile_index = 0x91;
;
	lda     #$91
;
; } else if (player_state == Going_Down) {
;
	jmp     L1FEE
L1FEF:	lda     _player_state
	cmp     #$01
	bne     L1FF0
;
; player_tl.tile_index = 0x84;
;
	lda     #$84
	sta     _player_tl+1
;
; player_tr.tile_index = 0x85;
;
	lda     #$85
	sta     _player_tr+1
;
; player_bl.tile_index = 0x90;
;
	lda     #$90
	sta     _player_bl+1
;
; player_br.tile_index = 0x91;
;
	lda     #$91
;
; } else if (player_state == Going_Left) {
;
	jmp     L1FEE
L1FF0:	lda     _player_state
	cmp     #$02
	bne     L1FF1
;
; player_tl.tile_index = 0x80;
;
	lda     #$80
	sta     _player_tl+1
;
; player_tr.tile_index = 0x81;
;
	lda     #$81
	sta     _player_tr+1
;
; player_bl.tile_index = 0x90;
;
	lda     #$90
	sta     _player_bl+1
;
; player_br.tile_index = 0x91;
;
	lda     #$91
;
; } else if (player_state == Going_Right) {
;
	jmp     L1FEE
L1FF1:	lda     _player_state
	cmp     #$03
	bne     L1FF2
;
; player_tl.tile_index = 0x82;
;
	lda     #$82
	sta     _player_tl+1
;
; player_tr.tile_index = 0x83;
;
	lda     #$83
	sta     _player_tr+1
;
; player_bl.tile_index = 0x90;
;
	lda     #$90
	sta     _player_bl+1
;
; player_br.tile_index = 0x91;
;
	lda     #$91
;
; } else if (player_state == Celebrate) {
;
	jmp     L1FEE
L1FF2:	lda     _player_state
	cmp     #$04
	bne     L1C5F
;
; player_tl.tile_index = 0x88;
;
L1FF3:	lda     #$88
	sta     _player_tl+1
;
; player_tr.tile_index = 0x89;
;
	lda     #$89
	sta     _player_tr+1
;
; player_bl.tile_index = 0x98;
;
	lda     #$98
	sta     _player_bl+1
;
; player_br.tile_index = 0x99;  
;
	lda     #$99
L1FEE:	sta     _player_br+1
;
; }
;
L1C5F:	rts

.endproc

; ---------------------------------------------------------------
; void __near__ add_second (void)
; ---------------------------------------------------------------

.segment	"CODE"

.proc	_add_second: near

.segment	"CODE"

;
; if (time_sec_low < 9)
;
	lda     _time_sec_low
	cmp     #$09
	bcs     L1FFA
;
; ++time_sec_low;
;
	inc     _time_sec_low
;
; else if (time_sec_low == 9) {
;
	rts
L1FFA:	lda     _time_sec_low
	cmp     #$09
	bne     L1C7C
;
; time_sec_low = 0;
;
	lda     #$00
	sta     _time_sec_low
;
; if (time_sec_high < 5)
;
	lda     _time_sec_high
	cmp     #$05
	bcs     L1FFB
;
; ++time_sec_high;
;
	inc     _time_sec_high
;
; else if (time_sec_high == 5) {
;
	rts
L1FFB:	lda     _time_sec_high
	cmp     #$05
	bne     L1C7C
;
; time_sec_high = 0;
;
	lda     #$00
	sta     _time_sec_high
;
; if (time_min < 9)
;
	lda     _time_min
	cmp     #$09
	bcs     L1FFC
;
; ++time_min;
;
	inc     _time_min
;
; else {
;
	rts
;
; time_min = 0;
;
L1FFC:	lda     #$00
	sta     _time_min
;
; time_sec_high = 0;
;
	sta     _time_sec_high
;
; time_sec_low = 0;
;
	sta     _time_sec_low
;
; }
;
L1C7C:	rts

.endproc

; ---------------------------------------------------------------
; void __near__ draw_background (void)
; ---------------------------------------------------------------

.segment	"CODE"

.proc	_draw_background: near

.segment	"CODE"

;
; PPU_ADDRESS = NAMETABLE0_HIGH;
;
	lda     #$20
	sta     $2006
;
; PPU_ADDRESS = NAMETABLE0_LOW;
;
	lda     #$00
	sta     $2006
;
; if (level_status == 0) {
;
	lda     _level_status
	bne     L1FFE
;
; UnRLE(level1);
;
	lda     #<(_level1)
	ldx     #>(_level1)
;
; } else if (level_status == 1) {
;
	jmp     L1FFD
L1FFE:	lda     _level_status
	cmp     #$01
	bne     L1FFF
;
; UnRLE(level2);
;
	lda     #<(_level2)
	ldx     #>(_level2)
;
; } else if (level_status == 2) {
;
	jmp     L1FFD
L1FFF:	lda     _level_status
	cmp     #$02
	bne     L2000
;
; UnRLE(level3);
;
	lda     #<(_level3)
	ldx     #>(_level3)
;
; } else if (level_status == 3) {
;
	jmp     L1FFD
L2000:	lda     _level_status
	cmp     #$03
	bne     L2001
;
; UnRLE(level4);
;
	lda     #<(_level4)
	ldx     #>(_level4)
;
; } else if (level_status == 4) {
;
	jmp     L1FFD
L2001:	lda     _level_status
	cmp     #$04
	bne     L1C9E
;
; UnRLE(level5);
;
	lda     #<(_level5)
	ldx     #>(_level5)
L1FFD:	jsr     _UnRLE
;
; reset_scroll();
;
L1C9E:	jmp     _reset_scroll

.endproc

; ---------------------------------------------------------------
; void __near__ get_player_border (void)
; ---------------------------------------------------------------

.segment	"CODE"

.proc	_get_player_border: near

.segment	"CODE"

;
; player_left_side  = player_tl.x + PLAYER_LEFT_GAP;
;
	lda     _player_tl+3
	clc
	adc     #$03
	sta     _player_left_side
;
; player_right_side = player_tr.x + PLAYER_WIDTH - PLAYER_RIGHT_GAP;
;
	lda     _player_tr+3
	clc
	adc     #$08
	sec
	sbc     #$03
	sta     _player_right_side
;
; player_top        = player_tl.y + PLAYER_TOP_GAP - 8;
;
	lda     _player_tl
	sec
	sbc     #$08
	sta     _player_top
;
; player_bottom     = player_br.y - PLAYER_BOT_GAP;
;
	lda     _player_br
	sta     _player_bottom
;
; player_center_x   = (player_left_side + player_right_side) >> 1;
;
	ldx     #$00
	lda     _player_left_side
	clc
	adc     _player_right_side
	bcc     L2002
	inx
L2002:	jsr     shrax1
	sta     _player_center_x
;
; player_center_y   = (player_top + player_bottom) >> 1;
;
	ldx     #$00
	lda     _player_top
	clc
	adc     _player_bottom
	bcc     L2003
	inx
L2003:	jsr     shrax1
	sta     _player_center_y
;
; }
;
	rts

.endproc

; ---------------------------------------------------------------
; void __near__ collision_check_vert (void)
; ---------------------------------------------------------------

.segment	"CODE"

.proc	_collision_check_vert: near

.segment	"CODE"

;
; get_player_border();
;
	jsr     _get_player_border
;
; if (InputPort1 & BUTTON_UP) {
;
	lda     _InputPort1
	and     #$08
	jeq     L2015
;
; collision_row = player_top >> 3;
;
	lda     _player_top
	lsr     a
	lsr     a
	lsr     a
	sta     _collision_row
;
; collision_col = player_center_x >> 3;
;
	lda     _player_center_x
	lsr     a
	lsr     a
	lsr     a
	sta     _collision_col
;
; if (level_status == 0) {
;
	lda     _level_status
	bne     L2010
;
; blocked = c_map1[collision_row][collision_col];
;
	tax
	lda     _collision_row
	jsr     aslax4
	stx     tmp1
	asl     a
	rol     tmp1
	clc
	adc     #<(_c_map1)
	sta     ptr1
	lda     tmp1
	adc     #>(_c_map1)
;
; } else if (level_status == 1) {
;
	jmp     L2021
L2010:	lda     _level_status
	cmp     #$01
	bne     L2011
;
; blocked = c_map2[collision_row][collision_col];
;
	ldx     #$00
	lda     _collision_row
	jsr     aslax4
	stx     tmp1
	asl     a
	rol     tmp1
	clc
	adc     #<(_c_map2)
	sta     ptr1
	lda     tmp1
	adc     #>(_c_map2)
;
; } else if (level_status == 2) {
;
	jmp     L2021
L2011:	lda     _level_status
	cmp     #$02
	bne     L2012
;
; blocked = c_map3[collision_row][collision_col];
;
	ldx     #$00
	lda     _collision_row
	jsr     aslax4
	stx     tmp1
	asl     a
	rol     tmp1
	clc
	adc     #<(_c_map3)
	sta     ptr1
	lda     tmp1
	adc     #>(_c_map3)
;
; } else if (level_status == 3) {
;
	jmp     L2021
L2012:	lda     _level_status
	cmp     #$03
	bne     L2013
;
; blocked = c_map4[collision_row][collision_col];
;
	ldx     #$00
	lda     _collision_row
	jsr     aslax4
	stx     tmp1
	asl     a
	rol     tmp1
	clc
	adc     #<(_c_map4)
	sta     ptr1
	lda     tmp1
	adc     #>(_c_map4)
;
; } else if (level_status == 4) {
;
	jmp     L2021
L2013:	lda     _level_status
	cmp     #$04
	bne     L2014
;
; blocked = c_map5[collision_row][collision_col];
;
	ldx     #$00
	lda     _collision_row
	jsr     aslax4
	stx     tmp1
	asl     a
	rol     tmp1
	clc
	adc     #<(_c_map5)
	sta     ptr1
	lda     tmp1
	adc     #>(_c_map5)
L2021:	sta     ptr1+1
	ldy     _collision_col
	lda     (ptr1),y
	sta     _blocked
;
; if (blocked != 0) {
;
L2014:	lda     _blocked
	beq     L2015
;
; ++player_tl.y;
;
	inc     _player_tl
;
; ++player_bl.y;
;
	inc     _player_bl
;
; ++player_tr.y;
;
	inc     _player_tr
;
; ++player_br.y;
;
	inc     _player_br
;
; if (InputPort1 & BUTTON_DOWN) {
;
L2015:	lda     _InputPort1
	and     #$04
	bne     L2023
;
; }
;
	rts
;
; collision_row = player_bottom >> 3;
;
L2023:	lda     _player_bottom
	lsr     a
	lsr     a
	lsr     a
	sta     _collision_row
;
; collision_col = player_center_x >> 3;
;
	lda     _player_center_x
	lsr     a
	lsr     a
	lsr     a
	sta     _collision_col
;
; if (level_status == 0) {
;
	lda     _level_status
	bne     L2016
;
; blocked = c_map1[collision_row][collision_col];
;
	tax
	lda     _collision_row
	jsr     aslax4
	stx     tmp1
	asl     a
	rol     tmp1
	clc
	adc     #<(_c_map1)
	sta     ptr1
	lda     tmp1
	adc     #>(_c_map1)
;
; } else if (level_status == 1) {
;
	jmp     L2022
L2016:	lda     _level_status
	cmp     #$01
	bne     L2017
;
; blocked = c_map2[collision_row][collision_col];
;
	ldx     #$00
	lda     _collision_row
	jsr     aslax4
	stx     tmp1
	asl     a
	rol     tmp1
	clc
	adc     #<(_c_map2)
	sta     ptr1
	lda     tmp1
	adc     #>(_c_map2)
;
; } else if (level_status == 2) {
;
	jmp     L2022
L2017:	lda     _level_status
	cmp     #$02
	bne     L2018
;
; blocked = c_map3[collision_row][collision_col];
;
	ldx     #$00
	lda     _collision_row
	jsr     aslax4
	stx     tmp1
	asl     a
	rol     tmp1
	clc
	adc     #<(_c_map3)
	sta     ptr1
	lda     tmp1
	adc     #>(_c_map3)
;
; } else if (level_status == 3) {
;
	jmp     L2022
L2018:	lda     _level_status
	cmp     #$03
	bne     L2019
;
; blocked = c_map4[collision_row][collision_col];
;
	ldx     #$00
	lda     _collision_row
	jsr     aslax4
	stx     tmp1
	asl     a
	rol     tmp1
	clc
	adc     #<(_c_map4)
	sta     ptr1
	lda     tmp1
	adc     #>(_c_map4)
;
; } else if (level_status == 4) {
;
	jmp     L2022
L2019:	lda     _level_status
	cmp     #$04
	bne     L201A
;
; blocked = c_map5[collision_row][collision_col];
;
	ldx     #$00
	lda     _collision_row
	jsr     aslax4
	stx     tmp1
	asl     a
	rol     tmp1
	clc
	adc     #<(_c_map5)
	sta     ptr1
	lda     tmp1
	adc     #>(_c_map5)
L2022:	sta     ptr1+1
	ldy     _collision_col
	lda     (ptr1),y
	sta     _blocked
;
; if (blocked != 0) {
;
L201A:	lda     _blocked
	beq     L1DCB
;
; --player_tl.y;
;
	dec     _player_tl
;
; --player_bl.y;
;
	dec     _player_bl
;
; --player_tr.y;
;
	dec     _player_tr
;
; --player_br.y;
;
	dec     _player_br
;
; }
;
L1DCB:	rts

.endproc

; ---------------------------------------------------------------
; void __near__ collision_check_horiz (void)
; ---------------------------------------------------------------

.segment	"CODE"

.proc	_collision_check_horiz: near

.segment	"CODE"

;
; get_player_border();
;
	jsr     _get_player_border
;
; blocked = 0;
;
	lda     #$00
	sta     _blocked
;
; blocked_top = 0;
;
	sta     _blocked_top
;
; blocked_bot = 0;
;
	sta     _blocked_bot
;
; if (InputPort1 & BUTTON_RIGHT) {
;
	lda     _InputPort1
	and     #$01
	jeq     L2047
;
; collision_row = player_center_y >> 3;
;
	lda     _player_center_y
	lsr     a
	lsr     a
	lsr     a
	sta     _collision_row
;
; collision_col = player_right_side >> 3;
;
	lda     _player_right_side
	lsr     a
	lsr     a
	lsr     a
	sta     _collision_col
;
; if (level_status == 0) {
;
	lda     _level_status
	bne     L2040
;
; blocked = c_map1[collision_row][collision_col];
;
	tax
	lda     _collision_row
	jsr     aslax4
	stx     tmp1
	asl     a
	rol     tmp1
	clc
	adc     #<(_c_map1)
	sta     ptr1
	lda     tmp1
	adc     #>(_c_map1)
	sta     ptr1+1
	ldy     _collision_col
	lda     (ptr1),y
	sta     _blocked
;
; blocked_top = c_map1[--collision_row][collision_col];
;
	ldx     #$00
	dec     _collision_row
	lda     _collision_row
	jsr     aslax4
	stx     tmp1
	asl     a
	rol     tmp1
	clc
	adc     #<(_c_map1)
	sta     ptr1
	lda     tmp1
	adc     #>(_c_map1)
	sta     ptr1+1
	ldy     _collision_col
	lda     (ptr1),y
	sta     _blocked_top
;
; ++collision_row;
;
	inc     _collision_row
;
; blocked_bot = c_map1[++collision_row][collision_col];
;
	ldx     #$00
	inc     _collision_row
	lda     _collision_row
	jsr     aslax4
	stx     tmp1
	asl     a
	rol     tmp1
	clc
	adc     #<(_c_map1)
	sta     ptr1
	lda     tmp1
	adc     #>(_c_map1)
;
; } else if (level_status == 1) {
;
	jmp     L2054
L2040:	lda     _level_status
	cmp     #$01
	bne     L2041
;
; blocked = c_map2[collision_row][collision_col];
;
	ldx     #$00
	lda     _collision_row
	jsr     aslax4
	stx     tmp1
	asl     a
	rol     tmp1
	clc
	adc     #<(_c_map2)
	sta     ptr1
	lda     tmp1
	adc     #>(_c_map2)
	sta     ptr1+1
	ldy     _collision_col
	lda     (ptr1),y
	sta     _blocked
;
; blocked_top = 0;//c_map2[--collision_row][collision_col];
;
	lda     #$00
	sta     _blocked_top
;
; } else if (level_status == 2) {
;
	jmp     L203E
L2041:	lda     _level_status
	cmp     #$02
	bne     L2042
;
; blocked = c_map3[collision_row][collision_col];
;
	ldx     #$00
	lda     _collision_row
	jsr     aslax4
	stx     tmp1
	asl     a
	rol     tmp1
	clc
	adc     #<(_c_map3)
	sta     ptr1
	lda     tmp1
	adc     #>(_c_map3)
	sta     ptr1+1
	ldy     _collision_col
	lda     (ptr1),y
	sta     _blocked
;
; blocked_top = c_map3[--collision_row][collision_col];
;
	ldx     #$00
	dec     _collision_row
	lda     _collision_row
	jsr     aslax4
	stx     tmp1
	asl     a
	rol     tmp1
	clc
	adc     #<(_c_map3)
	sta     ptr1
	lda     tmp1
	adc     #>(_c_map3)
	sta     ptr1+1
	ldy     _collision_col
	lda     (ptr1),y
	sta     _blocked_top
;
; ++collision_row;
;
	inc     _collision_row
;
; blocked_bot = c_map3[++collision_row][collision_col];
;
	ldx     #$00
	inc     _collision_row
	lda     _collision_row
	jsr     aslax4
	stx     tmp1
	asl     a
	rol     tmp1
	clc
	adc     #<(_c_map3)
	sta     ptr1
	lda     tmp1
	adc     #>(_c_map3)
;
; } else if (level_status == 3) {
;
	jmp     L2054
L2042:	lda     _level_status
	cmp     #$03
	bne     L2043
;
; blocked = c_map4[collision_row][collision_col];
;
	ldx     #$00
	lda     _collision_row
	jsr     aslax4
	stx     tmp1
	asl     a
	rol     tmp1
	clc
	adc     #<(_c_map4)
	sta     ptr1
	lda     tmp1
	adc     #>(_c_map4)
	sta     ptr1+1
	ldy     _collision_col
	lda     (ptr1),y
	sta     _blocked
;
; blocked_top = c_map4[--collision_row][collision_col];
;
	ldx     #$00
	dec     _collision_row
	lda     _collision_row
	jsr     aslax4
	stx     tmp1
	asl     a
	rol     tmp1
	clc
	adc     #<(_c_map4)
	sta     ptr1
	lda     tmp1
	adc     #>(_c_map4)
	sta     ptr1+1
	ldy     _collision_col
	lda     (ptr1),y
	sta     _blocked_top
;
; ++collision_row;
;
	inc     _collision_row
;
; blocked_bot = c_map4[++collision_row][collision_col];
;
	ldx     #$00
	inc     _collision_row
	lda     _collision_row
	jsr     aslax4
	stx     tmp1
	asl     a
	rol     tmp1
	clc
	adc     #<(_c_map4)
	sta     ptr1
	lda     tmp1
	adc     #>(_c_map4)
;
; } else if (level_status == 4) {
;
	jmp     L2054
L2043:	lda     _level_status
	cmp     #$04
	bne     L2044
;
; blocked = c_map5[collision_row][collision_col];
;
	ldx     #$00
	lda     _collision_row
	jsr     aslax4
	stx     tmp1
	asl     a
	rol     tmp1
	clc
	adc     #<(_c_map5)
	sta     ptr1
	lda     tmp1
	adc     #>(_c_map5)
	sta     ptr1+1
	ldy     _collision_col
	lda     (ptr1),y
	sta     _blocked
;
; blocked_top = c_map5[--collision_row][collision_col];
;
	ldx     #$00
	dec     _collision_row
	lda     _collision_row
	jsr     aslax4
	stx     tmp1
	asl     a
	rol     tmp1
	clc
	adc     #<(_c_map5)
	sta     ptr1
	lda     tmp1
	adc     #>(_c_map5)
	sta     ptr1+1
	ldy     _collision_col
	lda     (ptr1),y
	sta     _blocked_top
;
; ++collision_row;
;
	inc     _collision_row
;
; blocked_bot = c_map5[++collision_row][collision_col];
;
	ldx     #$00
	inc     _collision_row
	lda     _collision_row
	jsr     aslax4
	stx     tmp1
	asl     a
	rol     tmp1
	clc
	adc     #<(_c_map5)
	sta     ptr1
	lda     tmp1
	adc     #>(_c_map5)
L2054:	sta     ptr1+1
	ldy     _collision_col
	lda     (ptr1),y
L203E:	sta     _blocked_bot
;
; if (blocked != 0 || blocked_top != 0 || blocked_bot != 0) {
;
L2044:	lda     _blocked
	bne     L2045
	lda     _blocked_top
	bne     L2045
	lda     _blocked_bot
	beq     L2047
;
; --player_tl.x;
;
L2045:	dec     _player_tl+3
;
; --player_bl.x;
;
	dec     _player_bl+3
;
; --player_tr.x;
;
	dec     _player_tr+3
;
; --player_br.x;
;
	dec     _player_br+3
;
; blocked = 0;
;
	lda     #$00
L2047:	sta     _blocked
;
; blocked_top = 0;
;
	sta     _blocked_top
;
; blocked_bot = 0;
;
	sta     _blocked_bot
;
; if (InputPort1 & BUTTON_LEFT) {
;
	lda     _InputPort1
	and     #$02
	bne     L2056
;
; }
;
	rts
;
; collision_row = player_center_y >> 3;
;
L2056:	lda     _player_center_y
	lsr     a
	lsr     a
	lsr     a
	sta     _collision_row
;
; collision_col = player_left_side >> 3;
;
	lda     _player_left_side
	lsr     a
	lsr     a
	lsr     a
	sta     _collision_col
;
; if (level_status == 0) {
;
	lda     _level_status
	bne     L2048
;
; blocked = c_map1[collision_row][collision_col];
;
	tax
	lda     _collision_row
	jsr     aslax4
	stx     tmp1
	asl     a
	rol     tmp1
	clc
	adc     #<(_c_map1)
	sta     ptr1
	lda     tmp1
	adc     #>(_c_map1)
	sta     ptr1+1
	ldy     _collision_col
	lda     (ptr1),y
	sta     _blocked
;
; blocked_top = c_map1[--collision_row][collision_col];
;
	ldx     #$00
	dec     _collision_row
	lda     _collision_row
	jsr     aslax4
	stx     tmp1
	asl     a
	rol     tmp1
	clc
	adc     #<(_c_map1)
	sta     ptr1
	lda     tmp1
	adc     #>(_c_map1)
	sta     ptr1+1
	ldy     _collision_col
	lda     (ptr1),y
	sta     _blocked_top
;
; ++collision_row;
;
	inc     _collision_row
;
; blocked_bot = c_map1[++collision_row][collision_col];
;
	ldx     #$00
	inc     _collision_row
	lda     _collision_row
	jsr     aslax4
	stx     tmp1
	asl     a
	rol     tmp1
	clc
	adc     #<(_c_map1)
	sta     ptr1
	lda     tmp1
	adc     #>(_c_map1)
;
; } else if (level_status == 1) {
;
	jmp     L2055
L2048:	lda     _level_status
	cmp     #$01
	bne     L2049
;
; blocked = c_map2[collision_row][collision_col];
;
	ldx     #$00
	lda     _collision_row
	jsr     aslax4
	stx     tmp1
	asl     a
	rol     tmp1
	clc
	adc     #<(_c_map2)
	sta     ptr1
	lda     tmp1
	adc     #>(_c_map2)
	sta     ptr1+1
	ldy     _collision_col
	lda     (ptr1),y
	sta     _blocked
;
; blocked_top = 0;//c_map2[--collision_row][collision_col];
;
	lda     #$00
	sta     _blocked_top
;
; ++collision_row;
;
	inc     _collision_row
;
; } else if (level_status == 2) {
;
	jmp     L203F
L2049:	lda     _level_status
	cmp     #$02
	bne     L204A
;
; blocked = c_map3[collision_row][collision_col];
;
	ldx     #$00
	lda     _collision_row
	jsr     aslax4
	stx     tmp1
	asl     a
	rol     tmp1
	clc
	adc     #<(_c_map3)
	sta     ptr1
	lda     tmp1
	adc     #>(_c_map3)
	sta     ptr1+1
	ldy     _collision_col
	lda     (ptr1),y
	sta     _blocked
;
; blocked_top = c_map3[--collision_row][collision_col];
;
	ldx     #$00
	dec     _collision_row
	lda     _collision_row
	jsr     aslax4
	stx     tmp1
	asl     a
	rol     tmp1
	clc
	adc     #<(_c_map3)
	sta     ptr1
	lda     tmp1
	adc     #>(_c_map3)
	sta     ptr1+1
	ldy     _collision_col
	lda     (ptr1),y
	sta     _blocked_top
;
; ++collision_row;
;
	inc     _collision_row
;
; blocked_bot = c_map3[++collision_row][collision_col];
;
	ldx     #$00
	inc     _collision_row
	lda     _collision_row
	jsr     aslax4
	stx     tmp1
	asl     a
	rol     tmp1
	clc
	adc     #<(_c_map3)
	sta     ptr1
	lda     tmp1
	adc     #>(_c_map3)
;
; } else if (level_status == 3) {
;
	jmp     L2055
L204A:	lda     _level_status
	cmp     #$03
	bne     L204B
;
; blocked = c_map4[collision_row][collision_col];
;
	ldx     #$00
	lda     _collision_row
	jsr     aslax4
	stx     tmp1
	asl     a
	rol     tmp1
	clc
	adc     #<(_c_map4)
	sta     ptr1
	lda     tmp1
	adc     #>(_c_map4)
	sta     ptr1+1
	ldy     _collision_col
	lda     (ptr1),y
	sta     _blocked
;
; blocked_top = c_map4[--collision_row][collision_col];
;
	ldx     #$00
	dec     _collision_row
	lda     _collision_row
	jsr     aslax4
	stx     tmp1
	asl     a
	rol     tmp1
	clc
	adc     #<(_c_map4)
	sta     ptr1
	lda     tmp1
	adc     #>(_c_map4)
	sta     ptr1+1
	ldy     _collision_col
	lda     (ptr1),y
	sta     _blocked_top
;
; ++collision_row;
;
	inc     _collision_row
;
; blocked_bot = c_map4[++collision_row][collision_col];
;
	ldx     #$00
	inc     _collision_row
	lda     _collision_row
	jsr     aslax4
	stx     tmp1
	asl     a
	rol     tmp1
	clc
	adc     #<(_c_map4)
	sta     ptr1
	lda     tmp1
	adc     #>(_c_map4)
;
; } else if (level_status == 4) {
;
	jmp     L2055
L204B:	lda     _level_status
	cmp     #$04
	bne     L204C
;
; blocked = c_map5[collision_row][collision_col];
;
	ldx     #$00
	lda     _collision_row
	jsr     aslax4
	stx     tmp1
	asl     a
	rol     tmp1
	clc
	adc     #<(_c_map5)
	sta     ptr1
	lda     tmp1
	adc     #>(_c_map5)
	sta     ptr1+1
	ldy     _collision_col
	lda     (ptr1),y
	sta     _blocked
;
; blocked_top = c_map5[--collision_row][collision_col];
;
	ldx     #$00
	dec     _collision_row
	lda     _collision_row
	jsr     aslax4
	stx     tmp1
	asl     a
	rol     tmp1
	clc
	adc     #<(_c_map5)
	sta     ptr1
	lda     tmp1
	adc     #>(_c_map5)
	sta     ptr1+1
	ldy     _collision_col
	lda     (ptr1),y
	sta     _blocked_top
;
; ++collision_row;
;
	inc     _collision_row
;
; blocked_bot = c_map5[++collision_row][collision_col];
;
	ldx     #$00
	inc     _collision_row
	lda     _collision_row
	jsr     aslax4
	stx     tmp1
	asl     a
	rol     tmp1
	clc
	adc     #<(_c_map5)
	sta     ptr1
	lda     tmp1
	adc     #>(_c_map5)
L2055:	sta     ptr1+1
	ldy     _collision_col
	lda     (ptr1),y
L203F:	sta     _blocked_bot
;
; if (blocked != 0 || blocked_top != 0 || blocked_bot != 0) {
;
L204C:	lda     _blocked
	bne     L204D
	lda     _blocked_top
	bne     L204D
	lda     _blocked_bot
	bne     L204D
	rts
;
; ++player_tl.x;
;
L204D:	inc     _player_tl+3
;
; ++player_bl.x;
;
	inc     _player_bl+3
;
; ++player_tr.x;
;
	inc     _player_tr+3
;
; ++player_br.x;
;
	inc     _player_br+3
;
; }
;
	rts

.endproc

; ---------------------------------------------------------------
; void __near__ passed_level (void)
; ---------------------------------------------------------------

.segment	"CODE"

.proc	_passed_level: near

.segment	"CODE"

;
; ++level_status;
;
	inc     _level_status
;
; level_switch = 0;
;
	lda     #$00
	sta     _level_switch
;
; }
;
	rts

.endproc

; ---------------------------------------------------------------
; void __near__ level_intro (void)
; ---------------------------------------------------------------

.segment	"CODE"

.proc	_level_intro: near

.segment	"CODE"

;
; PPU_ADDRESS = NAMETABLE0_HIGH + 0x01;
;
	lda     #$21
	sta     $2006
;
; PPU_ADDRESS = NAMETABLE0_LOW  + 0xac;
;
	lda     #$AC
	sta     $2006
;
; PPU_DATA    = 'L';
;
	lda     #$4C
	sta     $2007
;
; PPU_DATA    = 'e';
;
	lda     #$65
	sta     $2007
;
; PPU_DATA    = 'v';
;
	lda     #$76
	sta     $2007
;
; PPU_DATA    = 'e';
;
	lda     #$65
	sta     $2007
;
; PPU_DATA    = 'l';
;
	lda     #$6C
	sta     $2007
;
; PPU_DATA    = ' ';
;
	lda     #$20
	sta     $2007
;
; PPU_DATA    = NUMBER_0 + level_status;
;
	lda     _level_status
	clc
	adc     #$30
	sta     $2007
;
; if (level_status == 0) {
;
	lda     _level_status
	bne     L1DF2
;
; reset_scroll();
;
	jsr     _reset_scroll
;
; PPU_ADDRESS = NAMETABLE0_HIGH + 0x02;
;
	lda     #$22
	sta     $2006
;
; PPU_ADDRESS = NAMETABLE0_LOW  + 0xa5;
;
	lda     #$A5
	sta     $2006
;
; PPU_DATA = 'P';
;
	lda     #$50
	sta     $2007
;
; PPU_DATA = 'r';
;
	lda     #$72
	sta     $2007
;
; PPU_DATA = 'e';
;
	lda     #$65
	sta     $2007
;
; PPU_DATA = 's';
;
	lda     #$73
	sta     $2007
;
; PPU_DATA = 's';
;
	sta     $2007
;
; PPU_DATA = ' ';
;
	lda     #$20
	sta     $2007
;
; PPU_DATA = 'A';
;
	lda     #$41
	sta     $2007
;
; PPU_DATA = ' ';
;
	lda     #$20
	sta     $2007
;
; PPU_DATA = 't';
;
	lda     #$74
	sta     $2007
;
; PPU_DATA = 'o';
;
	lda     #$6F
	sta     $2007
;
; PPU_DATA = ' ';
;
	lda     #$20
	sta     $2007
;
; PPU_DATA = 'E';
;
	lda     #$45
	sta     $2007
;
; PPU_DATA = 'n';
;
	lda     #$6E
	sta     $2007
;
; PPU_DATA = 't';
;
	lda     #$74
	sta     $2007
;
; PPU_DATA = 'e';
;
	lda     #$65
	sta     $2007
;
; PPU_DATA = 'r';
;
	lda     #$72
	sta     $2007
;
; PPU_DATA = ' ';
;
	lda     #$20
	sta     $2007
;
; PPU_DATA = 'D';
;
	lda     #$44
	sta     $2007
;
; PPU_DATA = 'o';
;
	lda     #$6F
	sta     $2007
;
; PPU_DATA = 'o';
;
	sta     $2007
;
; PPU_DATA = 'r';
;
	lda     #$72
	sta     $2007
;
; PPU_DATA = 's';
;
	lda     #$73
	sta     $2007
;
; reset_scroll();
;
L1DF2:	jmp     _reset_scroll

.endproc

; ---------------------------------------------------------------
; void __near__ level3_tele_logic (void)
; ---------------------------------------------------------------

.segment	"CODE"

.proc	_level3_tele_logic: near

.segment	"CODE"

;
; if (InputPort1 & BUTTON_A) {
;
	lda     _InputPort1
	and     #$80
	bne     L2062
;
; }
;
	rts
;
; if (player_tl.x >= 184 - PLAYER_WIDTH && player_tl.x <= 184 + PLAYER_WIDTH &&
;
L2062:	lda     _player_tl+3
	cmp     #$B0
	bcc     L205C
	cmp     #$C1
	bcs     L205C
;
; player_tl.y >= 72 - PLAYER_HEIGHT && player_tl.y <= 72 + PLAYER_HEIGHT) {
;
	lda     _player_tl
	cmp     #$38
	bcc     L205C
	cmp     #$59
	bcs     L205C
;
; if (level_switch == 0 || level_switch == 2) {
;
	lda     _level_switch
	beq     L205A
	cmp     #$02
	bne     L205B
;
; start_x = 48;
;
L205A:	lda     #$30
	sta     _start_x
;
; start_y = 88;
;
	lda     #$58
	sta     _start_y
;
; level_switch = 2;
;
	lda     #$02
	sta     _level_switch
;
; set_player();
;
	jsr     _set_player
;
; } else if (level_switch == 1) {
;
	jmp     L205C
L205B:	lda     _level_switch
	cmp     #$01
	bne     L205C
;
; game_state == Level_Passed;
;
	lda     _game_state
	cmp     #$02
	jsr     booleq
;
; level_switch = 0;
;
	stx     _level_switch
;
; if (player_tl.x >= 184 - PLAYER_WIDTH && player_tl.x <= 184 + PLAYER_WIDTH &&
;
L205C:	lda     _player_tl+3
	cmp     #$B0
	bcc     L205E
	cmp     #$C1
	bcs     L205E
;
; player_tl.y >= 104 - PLAYER_HEIGHT && player_tl.y <= 104 + PLAYER_HEIGHT) {
;
	lda     _player_tl
	cmp     #$58
	bcc     L205E
	cmp     #$79
	bcc     L205F
L205E:	rts
;
; if (level_switch == 0) {
;
L205F:	lda     _level_switch
	bne     L2060
;
; start_x = 48;
;
	lda     #$30
	sta     _start_x
;
; start_y = 88;
;
	lda     #$58
	sta     _start_y
;
; level_switch = 1;
;
	lda     #$01
	sta     _level_switch
;
; set_player();
;
	jmp     _set_player
;
; } else if (level_switch == 1) {
;
L2060:	lda     _level_switch
	cmp     #$01
	bne     L2061
;
; start_x = 48;
;
	lda     #$30
	sta     _start_x
;
; start_y = 88;
;
	lda     #$58
	sta     _start_y
;
; level_switch = 2;
;
	lda     #$02
	sta     _level_switch
;
; set_player();
;
	jmp     _set_player
;
; } else if (level_switch == 2) {
;
L2061:	lda     _level_switch
	cmp     #$02
	bne     L1E77
;
; game_state = Level_Passed;
;
	sta     _game_state
;
; level_switch = 0;
;
	lda     #$00
	sta     _level_switch
;
; }
;
L1E77:	rts

.endproc

; ---------------------------------------------------------------
; void __near__ level4_tele_logic (void)
; ---------------------------------------------------------------

.segment	"CODE"

.proc	_level4_tele_logic: near

.segment	"CODE"

;
; if (InputPort1 & BUTTON_A) {
;
	lda     _InputPort1
	and     #$80
	bne     L2070
;
; }
;
	rts
;
; if (player_tl.x >= 184 - PLAYER_WIDTH && player_tl.x <= 184 + PLAYER_WIDTH &&
;
L2070:	lda     _player_tl+3
	cmp     #$B0
	bcc     L2068
	cmp     #$C1
	bcs     L2068
;
; player_tl.y >= 72 - PLAYER_HEIGHT && player_tl.y <= 72 + PLAYER_HEIGHT) {
;
	lda     _player_tl
	cmp     #$38
	bcc     L2068
	cmp     #$59
	bcs     L2068
;
; if (level_switch == 0 || level_switch == 2) {
;
	lda     _level_switch
	beq     L2066
	cmp     #$02
	bne     L2067
;
; start_x = 48;
;
L2066:	lda     #$30
	sta     _start_x
;
; start_y = 88;
;
	lda     #$58
	sta     _start_y
;
; level_switch = 1;
;
	lda     #$01
	sta     _level_switch
;
; set_player();
;
	jsr     _set_player
;
; } else if (level_switch == 1) {
;
	jmp     L2068
L2067:	lda     _level_switch
	cmp     #$01
	bne     L2068
;
; game_state == Level_Passed;
;
	lda     _game_state
	cmp     #$02
	jsr     booleq
;
; if (player_tl.x >= 180 - PLAYER_WIDTH && player_tl.x <= 192 + PLAYER_WIDTH &&
;
L2068:	lda     _player_tl+3
	cmp     #$AC
	bcc     L206A
	cmp     #$C9
	bcs     L206A
;
; player_tl.y >= 104 - PLAYER_HEIGHT && player_tl.y <= 104 + PLAYER_HEIGHT) {
;
	lda     _player_tl
	cmp     #$58
	bcc     L206A
	cmp     #$79
	bcc     L206B
L206A:	rts
;
; if (level_switch == 0 || level_switch == 1) {
;
L206B:	lda     _level_switch
	beq     L206E
	cmp     #$01
	bne     L206F
;
; start_x = 48;
;
L206E:	lda     #$30
	sta     _start_x
;
; start_y = 88;
;
	lda     #$58
	sta     _start_y
;
; level_switch = 2;
;
	lda     #$02
	sta     _level_switch
;
; set_player();
;
	jmp     _set_player
;
; } else if (level_switch == 2) {
;
L206F:	lda     _level_switch
	cmp     #$02
	bne     L1EA1
;
; game_state = Level_Passed;
;
	sta     _game_state
;
; }
;
L1EA1:	rts

.endproc

; ---------------------------------------------------------------
; void __near__ level5_tele_logic (void)
; ---------------------------------------------------------------

.segment	"CODE"

.proc	_level5_tele_logic: near

.segment	"CODE"

;
; if (InputPort1 & BUTTON_A) {
;
	lda     _InputPort1
	and     #$80
	bne     L20A4
;
; }
;
	rts
;
; if (player_tl.x >= 64 - PLAYER_WIDTH && player_tl.x <= 64 + PLAYER_WIDTH &&
;
L20A4:	lda     _player_tl+3
	cmp     #$38
	bcc     L2079
	cmp     #$49
	bcs     L2079
;
; player_tl.y >= 40 - PLAYER_HEIGHT && player_tl.y <= 40 + PLAYER_HEIGHT) {
;
	lda     _player_tl
	cmp     #$18
	bcc     L2079
	cmp     #$39
	bcs     L2079
;
; if (level_switch == 0) {
;
	lda     _level_switch
	bne     L2079
;
; start_x = 184; // send to top-right
;
	lda     #$B8
	sta     _start_x
;
; start_y = 56;
;
	lda     #$38
	sta     _start_y
;
; set_player();
;
	jsr     _set_player
;
; level_switch = 0;
;
	lda     #$00
	sta     _level_switch
;
; if (player_tl.x >= 24 - PLAYER_WIDTH && player_tl.x <= 24 + PLAYER_WIDTH &&
;
L2079:	lda     _player_tl+3
	cmp     #$10
	bcc     L207D
	cmp     #$21
	bcs     L207D
;
; player_tl.y >= 72 - PLAYER_HEIGHT && player_tl.y <= 72 + PLAYER_HEIGHT) {
;
	lda     _player_tl
	cmp     #$38
	bcc     L207D
	cmp     #$59
	bcs     L207D
;
; if (level_switch == 0) {
;
	lda     _level_switch
	bne     L207D
;
; start_x = 184; // send to top-right
;
	lda     #$B8
	sta     _start_x
;
; start_y = 56;
;
	lda     #$38
	sta     _start_y
;
; set_player();
;
	jsr     _set_player
;
; level_switch = 2;    
;
	lda     #$02
	sta     _level_switch
;
; if (player_tl.x >= 64 - PLAYER_WIDTH && player_tl.x <= 64 + PLAYER_WIDTH &&
;
L207D:	lda     _player_tl+3
	cmp     #$38
	bcc     L2081
	cmp     #$49
	bcs     L2081
;
; player_tl.y >= 72 - PLAYER_HEIGHT && player_tl.y <= 72 + PLAYER_HEIGHT) {
;
	lda     _player_tl
	cmp     #$38
	bcc     L2081
	cmp     #$59
	bcs     L2081
;
; if (level_switch == 0) {
;
	lda     _level_switch
	bne     L2081
;
; start_x = 120; // send to bottom
;
	lda     #$78
	sta     _start_x
;
; start_y = 152;
;
	lda     #$98
	sta     _start_y
;
; set_player();
;
	jsr     _set_player
;
; level_switch = 2;  
;
	lda     #$02
	sta     _level_switch
;
; if (player_tl.x >= 120 && player_tl.x <= 120 + PLAYER_WIDTH &&
;
L2081:	lda     _player_tl+3
	cmp     #$78
	bcc     L2086
	cmp     #$81
	bcs     L2086
;
; player_tl.y >= 104 - PLAYER_HEIGHT && player_tl.y <= 104 + PLAYER_HEIGHT) {
;
	lda     _player_tl
	cmp     #$58
	bcc     L2086
	cmp     #$79
	bcs     L2086
;
; if (level_switch == 3) {
;
	lda     _level_switch
	cmp     #$03
	bne     L2085
;
; game_state = Level_Passed;
;
	lda     #$02
	sta     _game_state
;
; } else {
;
	jmp     L209A
;
; start_x = 24; // send top-left
;
L2085:	lda     #$18
	sta     _start_x
;
; start_y = 40;
;
	lda     #$28
	sta     _start_y
;
; set_player();
;
	jsr     _set_player
;
; level_switch = 0;
;
L209A:	lda     #$00
	sta     _level_switch
;
; if (player_tl.x >= 224 - PLAYER_WIDTH && player_tl.x <= 224 + PLAYER_WIDTH &&
;
L2086:	lda     _player_tl+3
	cmp     #$D8
	bcc     L208B
	cmp     #$E9
	bcs     L208B
;
; player_tl.y >= 40 - PLAYER_HEIGHT && player_tl.y <= 40 + PLAYER_HEIGHT) {
;
	lda     _player_tl
	cmp     #$18
	bcc     L208B
	cmp     #$39
	bcs     L208B
;
; if (level_switch == 0) {
;
	lda     _level_switch
	bne     L208A
;
; start_x = 112; // send to middle
;
	lda     #$70
	sta     _start_x
;
; start_y = 104;
;
	lda     #$68
	sta     _start_y
;
; set_player();
;
	jsr     _set_player
;
; level_switch = 1;
;
	lda     #$01
;
; } else if (level_switch == 2) {
;
	jmp     L2072
L208A:	lda     _level_switch
	cmp     #$02
	bne     L208B
;
; start_x = 112; // send to middle
;
	lda     #$70
	sta     _start_x
;
; start_y = 104;
;
	lda     #$68
	sta     _start_y
;
; set_player();
;
	jsr     _set_player
;
; level_switch = 3;
;
	lda     #$03
L2072:	sta     _level_switch
;
; if (player_tl.x >= 224 - PLAYER_WIDTH && player_tl.x <= 224 + PLAYER_WIDTH &&
;
L208B:	lda     _player_tl+3
	cmp     #$D8
	bcc     L2090
	cmp     #$E9
	bcs     L2090
;
; player_tl.y >= 72 - PLAYER_HEIGHT && player_tl.y <= 72 + PLAYER_HEIGHT) {
;
	lda     _player_tl
	cmp     #$38
	bcc     L2090
	cmp     #$59
	bcs     L2090
;
; if (level_switch == 2) {
;
	lda     _level_switch
	cmp     #$02
	bne     L208F
;
; start_x = 112; // send to middle
;
	lda     #$70
	sta     _start_x
;
; start_y = 104;
;
	lda     #$68
;
; } else if (level_switch == 0) {
;
	jmp     L209F
L208F:	lda     _level_switch
	bne     L2090
;
; start_x = 120; // send to bottom
;
	lda     #$78
	sta     _start_x
;
; start_y = 152;
;
	lda     #$98
L209F:	sta     _start_y
;
; set_player();
;
	jsr     _set_player
;
; level_switch = 1;      
;
	lda     #$01
	sta     _level_switch
;
; if (player_tl.x >= 40 - PLAYER_WIDTH && player_tl.x <= 40 + PLAYER_WIDTH &&
;
L2090:	lda     _player_tl+3
	cmp     #$20
	bcc     L2095
	cmp     #$31
	bcs     L2095
;
; player_tl.y >= 200 - PLAYER_HEIGHT && player_tl.y <= 200 + PLAYER_HEIGHT) {
;
	lda     _player_tl
	cmp     #$B8
	bcc     L2095
	cmp     #$D9
	bcs     L2095
;
; if (level_switch == 1) {
;
	lda     _level_switch
	cmp     #$01
;
; } else if (level_switch == 2) {
;
	beq     L20A3
	cmp     #$02
	bne     L2095
;
; start_x = 24; // send top-left
;
L20A3:	lda     #$18
	sta     _start_x
;
; start_y = 40;
;
	lda     #$28
	sta     _start_y
;
; set_player();
;
	jsr     _set_player
;
; level_switch = 0;
;
	lda     #$00
	sta     _level_switch
;
; if (player_tl.x >= 208 - PLAYER_WIDTH && player_tl.x <= 208 + PLAYER_WIDTH &&
;
L2095:	lda     _player_tl+3
	cmp     #$C8
	bcc     L2097
	cmp     #$D9
	bcs     L2097
;
; player_tl.y >= 200 - PLAYER_HEIGHT && player_tl.y <= 200 + PLAYER_HEIGHT) {
;
	lda     _player_tl
	cmp     #$B8
	bcc     L2097
	cmp     #$D9
	bcc     L2098
L2097:	rts
;
; if (level_switch == 1) {
;
L2098:	lda     _level_switch
	cmp     #$01
	bne     L2099
;
; start_x = 112; // send to middle
;
	lda     #$70
	sta     _start_x
;
; start_y = 104;
;
	lda     #$68
	sta     _start_y
;
; set_player();
;
	jsr     _set_player
;
; level_switch = 3;
;
	lda     #$03
;
; } else if (level_switch == 2) {
;
	jmp     L2075
L2099:	lda     _level_switch
	cmp     #$02
	bne     L1F34
;
; start_x = 24; // send top-left
;
	lda     #$18
	sta     _start_x
;
; start_y = 40;
;
	lda     #$28
	sta     _start_y
;
; set_player();
;
	jsr     _set_player
;
; level_switch = 0;    
;
	lda     #$00
L2075:	sta     _level_switch
;
; }
;
L1F34:	rts

.endproc

; ---------------------------------------------------------------
; void __near__ draw_title (void)
; ---------------------------------------------------------------

.segment	"CODE"

.proc	_draw_title: near

.segment	"CODE"

;
; PPU_ADDRESS = NAMETABLE0_HIGH + 0x01;
;
	lda     #$21
	sta     $2006
;
; PPU_ADDRESS = NAMETABLE0_LOW  + 0xa7;
;
	lda     #$A7
	sta     $2006
;
; PPU_DATA    = 'B';
;
	lda     #$42
	sta     $2007
;
; PPU_DATA    = 'E';
;
	lda     #$45
	sta     $2007
;
; PPU_DATA    = 'R';
;
	lda     #$52
	sta     $2007
;
; PPU_DATA    = 'T';
;
	lda     #$54
	sta     $2007
;
; PPU_DATA    = '\'';
;
	lda     #$27
	sta     $2007
;
; PPU_DATA    = 'S';
;
	lda     #$53
	sta     $2007
;
; PPU_DATA    = ' ';
;
	lda     #$20
	sta     $2007
;
; PPU_DATA    = ' ';
;
	sta     $2007
;
; PPU_DATA    = 'A';
;
	lda     #$41
	sta     $2007
;
; PPU_DATA    = 'D';
;
	lda     #$44
	sta     $2007
;
; PPU_DATA    = 'V';
;
	lda     #$56
	sta     $2007
;
; PPU_DATA    = 'E';
;
	lda     #$45
	sta     $2007
;
; PPU_DATA    = 'N';
;
	lda     #$4E
	sta     $2007
;
; PPU_DATA    = 'T';
;
	lda     #$54
	sta     $2007
;
; PPU_DATA    = 'U';
;
	lda     #$55
	sta     $2007
;
; PPU_DATA    = 'R';
;
	lda     #$52
	sta     $2007
;
; PPU_DATA    = 'E';
;
	lda     #$45
	sta     $2007
;
; PPU_ADDRESS = NAMETABLE0_HIGH + 0x06; //05
;
	lda     #$26
	sta     $2006
;
; PPU_ADDRESS = NAMETABLE0_LOW  + 0xa6;
;
	lda     #$A6
	sta     $2006
;
; PPU_DATA    = 'P';
;
	lda     #$50
	sta     $2007
;
; PPU_DATA    = 'r';
;
	lda     #$72
	sta     $2007
;
; PPU_DATA    = 'e';
;
	lda     #$65
	sta     $2007
;
; PPU_DATA    = 's';
;
	lda     #$73
	sta     $2007
;
; PPU_DATA    = 's';
;
	sta     $2007
;
; PPU_DATA    = ' ';
;
	lda     #$20
	sta     $2007
;
; PPU_DATA    = 'S';
;
	lda     #$53
	sta     $2007
;
; PPU_DATA    = 't';
;
	lda     #$74
	sta     $2007
;
; PPU_DATA    = 'a';
;
	lda     #$61
	sta     $2007
;
; PPU_DATA    = 'r';
;
	lda     #$72
	sta     $2007
;
; PPU_DATA    = 't';
;
	lda     #$74
	sta     $2007
;
; PPU_DATA    = ' ';
;
	lda     #$20
	sta     $2007
;
; PPU_DATA    = 't';
;
	lda     #$74
	sta     $2007
;
; PPU_DATA    = 'o';
;
	lda     #$6F
	sta     $2007
;
; PPU_DATA    = ' ';
;
	lda     #$20
	sta     $2007
;
; PPU_DATA    = 'P';
;
	lda     #$50
	sta     $2007
;
; PPU_DATA    = 'l';
;
	lda     #$6C
	sta     $2007
;
; PPU_DATA    = 'a';
;
	lda     #$61
	sta     $2007
;
; PPU_DATA    = 'y';
;
	lda     #$79
	sta     $2007
;
; PPU_DATA    = ' ';
;
	lda     #$20
	sta     $2007
;
; reset_scroll();
;
	jmp     _reset_scroll

.endproc

; ---------------------------------------------------------------
; void __near__ clear_nametable (void)
; ---------------------------------------------------------------

.segment	"CODE"

.proc	_clear_nametable: near

.segment	"CODE"

;
; PPU_ADDRESS = NAMETABLE0_HIGH;
;
	lda     #$20
	sta     $2006
;
; PPU_ADDRESS = NAMETABLE0_LOW;
;
	lda     #$00
	sta     $2006
;
; UnRLE(empty);
;
	lda     #<(_empty)
	ldx     #>(_empty)
	jsr     _UnRLE
;
; reset_scroll();
;
	jmp     _reset_scroll

.endproc

; ---------------------------------------------------------------
; void __near__ draw_end (void)
; ---------------------------------------------------------------

.segment	"CODE"

.proc	_draw_end: near

.segment	"CODE"

;
; screen_off();
;
	jsr     _screen_off
;
; PPU_ADDRESS = NAMETABLE0_HIGH;
;
	lda     #$20
	sta     $2006
;
; PPU_ADDRESS = NAMETABLE0_LOW;
;
	lda     #$00
	sta     $2006
;
; UnRLE(end);
;
	lda     #<(_end)
	ldx     #>(_end)
	jsr     _UnRLE
;
; Wait_Vblank();
;
	jsr     _Wait_Vblank
;
; screen_on();
;
	jsr     _screen_on
;
; reset_scroll();
;
	jsr     _reset_scroll
;
; PPU_ADDRESS = NAMETABLE0_HIGH + 0x01;
;
	lda     #$21
	sta     $2006
;
; PPU_ADDRESS = NAMETABLE0_LOW  + 0x8a;
;
	lda     #$8A
	sta     $2006
;
; PPU_DATA = 'T';
;
	lda     #$54
	sta     $2007
;
; PPU_DATA = 'i';
;
	lda     #$69
	sta     $2007
;
; PPU_DATA = 'm';
;
	lda     #$6D
	sta     $2007
;
; PPU_DATA = 'e';
;
	lda     #$65
	sta     $2007
;
; PPU_DATA = ' ';
;
	lda     #$20
	sta     $2007
;
; PPU_DATA = NUMBER_0 + time_min;
;
	lda     _time_min
	clc
	adc     #$30
	sta     $2007
;
; PPU_DATA = 0x3a; // ':'
;
	lda     #$3A
	sta     $2007
;
; PPU_DATA = NUMBER_0 + time_sec_high;
;
	lda     _time_sec_high
	clc
	adc     #$30
	sta     $2007
;
; PPU_DATA = NUMBER_0 + time_sec_low;
;
	lda     _time_sec_low
	clc
	adc     #$30
	sta     $2007
;
; reset_scroll();
;
	jmp     _reset_scroll

.endproc

; ---------------------------------------------------------------
; int __near__ main (void)
; ---------------------------------------------------------------

.segment	"CODE"

.proc	_main: near

.segment	"CODE"

;
; level_status = 0;
;
	lda     #$00
	sta     _level_status
;
; game_state = Title;
;
	sta     _game_state
;
; start_x = 112;
;
	lda     #$70
	sta     _start_x
;
; start_y = 104;
;
	lda     #$68
	sta     _start_y
;
; end_x_min = 144;
;
	lda     #$90
	sta     _end_x_min
;
; end_x_max = 160;
;
	lda     #$A0
	sta     _end_x_max
;
; end_y_min = 96;
;
	lda     #$60
	sta     _end_y_min
;
; end_y_max = 120;
;
	lda     #$78
	sta     _end_y_max
;
; screen_off();
;
	jsr     _screen_off
;
; set_palette();
;
	jsr     _set_palette
;
; draw_title();
;
	jsr     _draw_title
;
; screen_on();
;
	jsr     _screen_on
;
; WaitFrame(); // wait for vblank/nmi handler in reset.s to trigger
;
L1ACD:	jsr     _WaitFrame
;
; if (game_state == Title) {
;
	lda     _game_state
	bne     L20A9
;
; if (InputPort1 & BUTTON_START) {
;
	lda     _InputPort1
	and     #$10
	beq     L20A8
;
; timer = 0;
;
	lda     #$00
	sta     _timer
;
; game_state = Level_Intro;
;
	lda     #$04
	sta     _game_state
;
; screen_off();
;
	jsr     _screen_off
;
; clear_nametable();
;
	jsr     _clear_nametable
;
; Wait_Vblank();
;
	jsr     _Wait_Vblank
;
; screen_on();
;
	jsr     _screen_on
;
; level_intro();
;
	jsr     _level_intro
;
; Frame_Number = 0;
;
	lda     #$00
L20A8:	sta     _Frame_Number
;
; if (game_state == Level_Intro) {
;
L20A9:	lda     _game_state
	cmp     #$04
	bne     L20AA
;
; if (Frame_Number == 60) { // this runs once every second
;
	lda     _Frame_Number
	cmp     #$3C
	bne     L20AA
;
; ++timer;
;
	inc     _timer
;
; if (timer >= 3) {
;
	lda     _timer
	cmp     #$03
	bcc     L1AE6
;
; timer = 0;
;
	lda     #$00
	sta     _timer
;
; game_state = Level;
;
	lda     #$01
	sta     _game_state
;
; screen_off();
;
	jsr     _screen_off
;
; clear_nametable();
;
	jsr     _clear_nametable
;
; Wait_Vblank();
;
	jsr     _Wait_Vblank
;
; screen_on();
;
	jsr     _screen_on
;
; init_player();
;
	jsr     _init_player
;
; screen_off();
;
	jsr     _screen_off
;
; draw_background();
;
	jsr     _draw_background
;
; Wait_Vblank();
;
	jsr     _Wait_Vblank
;
; screen_on();
;
	jsr     _screen_on
;
; update_time();
;
L1AE6:	jsr     _update_time
;
; Frame_Number = 0;
;
	lda     #$00
	sta     _Frame_Number
;
; if (game_state == Level) {
;
L20AA:	lda     _game_state
	cmp     #$01
	jne     L20B3
;
; input_handler();
;
	jsr     _input_handler
;
; update_sprite();
;
	jsr     _update_sprite
;
; reset_scroll();
;
	jsr     _reset_scroll
;
; if ((player_tl.x <= end_x_max && player_tl.x + PLAYER_WIDTH >= end_x_min && 
;
	ldx     #$00
	lda     _player_tl+3
	sec
	sbc     _end_x_max
	sta     tmp1
	lda     tmp1
	beq     L20AB
	bcs     L20B0
L20AB:	lda     _player_tl+3
	clc
	adc     #$08
	bcc     L1B01
	inx
L1B01:	cmp     _end_x_min
	txa
	sbc     #$00
	bcc     L20B0
;
; player_tl.y <= end_y_max && player_tl.y + PLAYER_HEIGHT >= end_y_min &&
;
	ldx     #$00
	lda     _player_tl
	sec
	sbc     _end_y_max
	sta     tmp1
	lda     tmp1
	beq     L20AC
	bcs     L20B0
L20AC:	lda     _player_tl
	clc
	adc     #$10
	bcc     L1B02
	inx
L1B02:	cmp     _end_y_min
	txa
	sbc     #$00
	bcc     L20B0
;
; BUTTON_A & InputPort1)) {
;
	lda     _InputPort1
	and     #$80
	beq     L20B0
;
; game_state = Level_Passed;
;
	lda     #$02
	sta     _game_state
;
; } else if (level_status == 2) {
;
	jmp     L1B0F
L20B0:	lda     _level_status
	cmp     #$02
	bne     L20B1
;
; level3_tele_logic();
;
	jsr     _level3_tele_logic
;
; } else if (level_status == 3) {
;
	jmp     L1B0F
L20B1:	lda     _level_status
	cmp     #$03
	bne     L20B2
;
; level4_tele_logic();
;
	jsr     _level4_tele_logic
;
; } else if (level_status == 4) {
;
	jmp     L1B0F
L20B2:	lda     _level_status
	cmp     #$04
	bne     L1B0F
;
; level5_tele_logic();
;
	jsr     _level5_tele_logic
;
; reset_scroll();
;
L1B0F:	jsr     _reset_scroll
;
; if (game_state == Level_Passed) {
;
L20B3:	lda     _game_state
	cmp     #$02
	jne     L20B9
;
; player_state = Celebrate;
;
	lda     #$04
	sta     _player_state
;
; update_sprite();
;
	jsr     _update_sprite
;
; game_state = Level_Intro;
;
	lda     #$04
	sta     _game_state
;
; passed_level();
;
	jsr     _passed_level
;
; if (level_status == 1) {
;
	lda     _level_status
	cmp     #$01
	bne     L20B4
;
; start_x = 48; // levelT
;
	lda     #$30
	sta     _start_x
;
; start_y = 64;
;
	lda     #$40
	sta     _start_y
;
; end_x_min = 136;
;
	lda     #$88
	sta     _end_x_min
;
; end_x_max = 144;
;
	lda     #$90
	sta     _end_x_max
;
; end_y_min = 176;
;
	lda     #$B0
	sta     _end_y_min
;
; end_y_max = 192;
;
	lda     #$C0
	sta     _end_y_max
;
; level_switch = 0;
;
	lda     #$00
	sta     _level_switch
;
; } else if (level_status == 2) {
;
	jmp     L20B8
L20B4:	lda     _level_status
	cmp     #$02
	bne     L20B5
;
; start_x = 48; // level 3
;
	lda     #$30
	sta     _start_x
;
; start_y = 88;
;
	lda     #$58
	sta     _start_y
;
; level_switch = 0;
;
	lda     #$00
	sta     _level_switch
;
; } else if (level_status == 3) {
;
	jmp     L20B8
L20B5:	lda     _level_status
	cmp     #$03
	bne     L20B6
;
; start_x = 48; // level 4
;
	lda     #$30
	sta     _start_x
;
; start_y = 88;
;
	lda     #$58
	sta     _start_y
;
; level_switch = 0;
;
	lda     #$00
	sta     _level_switch
;
; } else if (level_status == 4) {
;
	jmp     L20B8
L20B6:	lda     _level_status
	cmp     #$04
	bne     L20B7
;
; start_x = 24; // level 5
;
	lda     #$18
	sta     _start_x
;
; start_y = 40;
;
	lda     #$28
	sta     _start_y
;
; level_switch = 0;
;
	lda     #$00
	sta     _level_switch
;
; } else if (level_status == 5) {
;
	jmp     L20B8
L20B7:	lda     _level_status
	cmp     #$05
	bne     L20B8
;
; game_state = End;
;
	lda     #$03
	sta     _game_state
;
; if (game_state != End) {
;
L20B8:	lda     _game_state
	cmp     #$03
	beq     L20B9
;
; screen_off();
;
	jsr     _screen_off
;
; clear_nametable();
;
	jsr     _clear_nametable
;
; Wait_Vblank();
;
	jsr     _Wait_Vblank
;
; screen_on();
;
	jsr     _screen_on
;
; level_intro();
;
	jsr     _level_intro
;
; set_player();
;
	jsr     _set_player
;
; if (game_state == End) {
;
L20B9:	lda     _game_state
	cmp     #$03
	bne     L20BB
;
; input_handler();
;
	jsr     _input_handler
;
; update_sprite();
;
	jsr     _update_sprite
;
; if (end_drawn == 0) {
;
	lda     _end_drawn
	bne     L20BA
;
; draw_end();
;
	jsr     _draw_end
;
; end_drawn = 1;
;
	lda     #$01
	sta     _end_drawn
;
; start_x = 40;
;
	lda     #$28
	sta     _start_x
;
; start_y = 40;
;
	sta     _start_y
;
; set_player();
;
	jsr     _set_player
;
; if (BUTTON_START & InputPort1) {
;
L20BA:	lda     _InputPort1
	and     #$10
	beq     L20BB
;
; game_state = Title;
;
	lda     #$00
	sta     _game_state
;
; level_status = 0;
;
	sta     _level_status
;
; start_x = 112;
;
	lda     #$70
	sta     _start_x
;
; start_y = 104;
;
	lda     #$68
	sta     _start_y
;
; end_x_min = 144;
;
	lda     #$90
	sta     _end_x_min
;
; end_x_max = 160;
;
	lda     #$A0
	sta     _end_x_max
;
; end_y_min = 96;
;
	lda     #$60
	sta     _end_y_min
;
; end_y_max = 120;
;
	lda     #$78
	sta     _end_y_max
;
; if (game_state != End && Frame_Number == 60) {
;
L20BB:	lda     _game_state
	cmp     #$03
	jeq     L1ACD
	lda     _Frame_Number
	cmp     #$3C
	jne     L1ACD
;
; add_second();
;
	jsr     _add_second
;
; update_time();
;
	jsr     _update_time
;
; Frame_Number = 0;
;
	lda     #$00
	sta     _Frame_Number
;
; while(1) {
;
	jmp     L1ACD

.endproc

